libAlembic.so.1.7:_ZN7Alembic11AbcCoreHDF53v1111CreateCacheEv
libAlembic.so.1.7:_ZN7Alembic11AbcCoreHDF53v1111ReadArchiveC1Eb
libAlembic.so.1.7:_ZN7Alembic11AbcCoreHDF53v1111ReadArchiveC1Ev
libAlembic.so.1.7:_ZN7Alembic11AbcCoreHDF53v1111ReadArchiveC2Eb
libAlembic.so.1.7:_ZN7Alembic11AbcCoreHDF53v1111ReadArchiveC2Ev
libAlembic.so.1.7:_ZN7Alembic11AbcCoreHDF53v1112WriteArchiveC1Eb
libAlembic.so.1.7:_ZN7Alembic11AbcCoreHDF53v1112WriteArchiveC1Ev
libAlembic.so.1.7:_ZN7Alembic11AbcCoreHDF53v1112WriteArchiveC2Eb
libAlembic.so.1.7:_ZN7Alembic11AbcCoreHDF53v1112WriteArchiveC2Ev
libAlembic.so.1.7:_ZN7Alembic11AbcMaterial3v1111addMaterialENS_3Abc3v1117OCompoundPropertyERKNSt7__cxx1112basic_stringIcSt11char_traitsIcESaIcEEE
libAlembic.so.1.7:_ZN7Alembic11AbcMaterial3v1111addMaterialENS_3Abc3v117OObjectERKNSt7__cxx1112basic_stringIcSt11char_traitsIcESaIcEEE
libAlembic.so.1.7:_ZN7Alembic11AbcMaterial3v1111hasMaterialENS_3Abc3v1117ICompoundPropertyERNS1_15IMaterialSchemaERKNSt7__cxx1112basic_stringIcSt11char_traitsIcESaIcEEE
libAlembic.so.1.7:_ZN7Alembic11AbcMaterial3v1111hasMaterialENS_3Abc3v117IObjectERNS1_15IMaterialSchemaERKNSt7__cxx1112basic_stringIcSt11char_traitsIcESaIcEEE
libAlembic.so.1.7:_ZN7Alembic11AbcMaterial3v1115IMaterialSchema11NetworkNode11getNodeTypeERNSt7__cxx1112basic_stringIcSt11char_traitsIcESaIcEEE
libAlembic.so.1.7:_ZN7Alembic11AbcMaterial3v1115IMaterialSchema11NetworkNode13getConnectionERKNSt7__cxx1112basic_stringIcSt11char_traitsIcESaIcEEERS9_SC_
libAlembic.so.1.7:_ZN7Alembic11AbcMaterial3v1115IMaterialSchema11NetworkNode13getConnectionEmRNSt7__cxx1112basic_stringIcSt11char_traitsIcESaIcEEESA_SA_
libAlembic.so.1.7:_ZN7Alembic11AbcMaterial3v1115IMaterialSchema11NetworkNode13getParametersEv
libAlembic.so.1.7:_ZN7Alembic11AbcMaterial3v1115IMaterialSchema11NetworkNode17getNumConnectionsEv
libAlembic.so.1.7:_ZN7Alembic11AbcMaterial3v1115IMaterialSchema11NetworkNode20splitConnectionValueERKNSt7__cxx1112basic_stringIcSt11char_traitsIcESaIcEEERS9_SC_
libAlembic.so.1.7:_ZN7Alembic11AbcMaterial3v1115IMaterialSchema11NetworkNode5validEv
libAlembic.so.1.7:_ZN7Alembic11AbcMaterial3v1115IMaterialSchema11NetworkNode7getNameB5cxx11Ev
libAlembic.so.1.7:_ZN7Alembic11AbcMaterial3v1115IMaterialSchema11NetworkNode9getTargetERNSt7__cxx1112basic_stringIcSt11char_traitsIcESaIcEEE
libAlembic.so.1.7:_ZN7Alembic11AbcMaterial3v1115IMaterialSchema11NetworkNodeC1ENS_3Abc3v1117ICompoundPropertyE
libAlembic.so.1.7:_ZN7Alembic11AbcMaterial3v1115IMaterialSchema11NetworkNodeC1ENS_3Abc3v1117ICompoundPropertyERKNSt7__cxx1112basic_stringIcSt11char_traitsIcESaIcEEE
libAlembic.so.1.7:_ZN7Alembic11AbcMaterial3v1115IMaterialSchema11NetworkNodeC1Ev
libAlembic.so.1.7:_ZN7Alembic11AbcMaterial3v1115IMaterialSchema11NetworkNodeC2ENS_3Abc3v1117ICompoundPropertyE
libAlembic.so.1.7:_ZN7Alembic11AbcMaterial3v1115IMaterialSchema11NetworkNodeC2ENS_3Abc3v1117ICompoundPropertyERKNSt7__cxx1112basic_stringIcSt11char_traitsIcESaIcEEE
libAlembic.so.1.7:_ZN7Alembic11AbcMaterial3v1115IMaterialSchema11NetworkNodeC2Ev
libAlembic.so.1.7:_ZN7Alembic11AbcMaterial3v1115IMaterialSchema14getNetworkNodeERKNSt7__cxx1112basic_stringIcSt11char_traitsIcESaIcEEE
libAlembic.so.1.7:_ZN7Alembic11AbcMaterial3v1115IMaterialSchema14getNetworkNodeEm
libAlembic.so.1.7:_ZN7Alembic11AbcMaterial3v1115IMaterialSchema14getTargetNamesERSt6vectorINSt7__cxx1112basic_stringIcSt11char_traitsIcESaIcEEESaIS9_EE
libAlembic.so.1.7:_ZN7Alembic11AbcMaterial3v1115IMaterialSchema18getNetworkTerminalERKNSt7__cxx1112basic_stringIcSt11char_traitsIcESaIcEEESA_RS8_SB_
libAlembic.so.1.7:_ZN7Alembic11AbcMaterial3v1115IMaterialSchema18getNumNetworkNodesEv
libAlembic.so.1.7:_ZN7Alembic11AbcMaterial3v1115IMaterialSchema19getNetworkNodeNamesERSt6vectorINSt7__cxx1112basic_stringIcSt11char_traitsIcESaIcEEESaIS9_EE
libAlembic.so.1.7:_ZN7Alembic11AbcMaterial3v1115IMaterialSchema19getShaderParametersERKNSt7__cxx1112basic_stringIcSt11char_traitsIcESaIcEEESA_
libAlembic.so.1.7:_ZN7Alembic11AbcMaterial3v1115IMaterialSchema23getShaderTypesForTargetERKNSt7__cxx1112basic_stringIcSt11char_traitsIcESaIcEEERSt6vectorIS8_SaIS8_EE
libAlembic.so.1.7:_ZN7Alembic11AbcMaterial3v1115IMaterialSchema29getNetworkInterfaceParametersEv
libAlembic.so.1.7:_ZN7Alembic11AbcMaterial3v1115IMaterialSchema29getNetworkTerminalTargetNamesERSt6vectorINSt7__cxx1112basic_stringIcSt11char_traitsIcESaIcEEESaIS9_EE
libAlembic.so.1.7:_ZN7Alembic11AbcMaterial3v1115IMaterialSchema35getNetworkInterfaceParameterMappingERKNSt7__cxx1112basic_stringIcSt11char_traitsIcESaIcEEERS8_SB_
libAlembic.so.1.7:_ZN7Alembic11AbcMaterial3v1115IMaterialSchema35getNetworkInterfaceParameterMappingEmRNSt7__cxx1112basic_stringIcSt11char_traitsIcESaIcEEES9_S9_
libAlembic.so.1.7:_ZN7Alembic11AbcMaterial3v1115IMaterialSchema38getNetworkTerminalShaderTypesForTargetERKNSt7__cxx1112basic_stringIcSt11char_traitsIcESaIcEEERSt6vectorIS8_SaIS8_EE
libAlembic.so.1.7:_ZN7Alembic11AbcMaterial3v1115IMaterialSchema39getNumNetworkInterfaceParameterMappingsEv
libAlembic.so.1.7:_ZN7Alembic11AbcMaterial3v1115IMaterialSchema40getNetworkInterfaceParameterMappingNamesERSt6vectorINSt7__cxx1112basic_stringIcSt11char_traitsIcESaIcEEESaIS9_EE
libAlembic.so.1.7:_ZN7Alembic11AbcMaterial3v1115IMaterialSchema4initEv
libAlembic.so.1.7:_ZN7Alembic11AbcMaterial3v1115IMaterialSchema9getShaderERKNSt7__cxx1112basic_stringIcSt11char_traitsIcESaIcEEESA_RS8_
libAlembic.so.1.7:_ZN7Alembic11AbcMaterial3v1115MaterialFlatten11NetworkNode11getNodeTypeERNSt7__cxx1112basic_stringIcSt11char_traitsIcESaIcEEE
libAlembic.so.1.7:_ZN7Alembic11AbcMaterial3v1115MaterialFlatten11NetworkNode13getParametersERSt6vectorINS2_14ParameterEntryESaIS5_EE
libAlembic.so.1.7:_ZN7Alembic11AbcMaterial3v1115MaterialFlatten11NetworkNode14getConnectionsERSt6vectorINS3_10ConnectionESaIS5_EE
libAlembic.so.1.7:_ZN7Alembic11AbcMaterial3v1115MaterialFlatten11NetworkNode5validEv
libAlembic.so.1.7:_ZN7Alembic11AbcMaterial3v1115MaterialFlatten11NetworkNode7getNameB5cxx11Ev
libAlembic.so.1.7:_ZN7Alembic11AbcMaterial3v1115MaterialFlatten11NetworkNode9getTargetERNSt7__cxx1112basic_stringIcSt11char_traitsIcESaIcEEE
libAlembic.so.1.7:_ZN7Alembic11AbcMaterial3v1115MaterialFlatten11NetworkNodeC1ERKNSt7__cxx1112basic_stringIcSt11char_traitsIcESaIcEEERSt6vectorINS1_15IMaterialSchemaESaISD_EESt10shared_ptrISt3mapIS9_S9_St4lessIS9_ESaISt4pairISA_S9_EEEE
libAlembic.so.1.7:_ZN7Alembic11AbcMaterial3v1115MaterialFlatten11NetworkNodeC1Ev
libAlembic.so.1.7:_ZN7Alembic11AbcMaterial3v1115MaterialFlatten11NetworkNodeC2ERKNSt7__cxx1112basic_stringIcSt11char_traitsIcESaIcEEERSt6vectorINS1_15IMaterialSchemaESaISD_EESt10shared_ptrISt3mapIS9_S9_St4lessIS9_ESaISt4pairISA_S9_EEEE
libAlembic.so.1.7:_ZN7Alembic11AbcMaterial3v1115MaterialFlatten11NetworkNodeC2Ev
libAlembic.so.1.7:_ZN7Alembic11AbcMaterial3v1115MaterialFlatten14flattenNetworkEv
libAlembic.so.1.7:_ZN7Alembic11AbcMaterial3v1115MaterialFlatten14getNetworkNodeERKNSt7__cxx1112basic_stringIcSt11char_traitsIcESaIcEEE
libAlembic.so.1.7:_ZN7Alembic11AbcMaterial3v1115MaterialFlatten14getNetworkNodeEm
libAlembic.so.1.7:_ZN7Alembic11AbcMaterial3v1115MaterialFlatten14getTargetNamesERSt6vectorINSt7__cxx1112basic_stringIcSt11char_traitsIcESaIcEEESaIS9_EE
libAlembic.so.1.7:_ZN7Alembic11AbcMaterial3v1115MaterialFlatten18getNetworkTerminalERKNSt7__cxx1112basic_stringIcSt11char_traitsIcESaIcEEESA_RS8_SB_
libAlembic.so.1.7:_ZN7Alembic11AbcMaterial3v1115MaterialFlatten18getNumNetworkNodesEv
libAlembic.so.1.7:_ZN7Alembic11AbcMaterial3v1115MaterialFlatten19getShaderParametersERKNSt7__cxx1112basic_stringIcSt11char_traitsIcESaIcEEESA_RSt6vectorINS2_14ParameterEntryESaISC_EE
libAlembic.so.1.7:_ZN7Alembic11AbcMaterial3v1115MaterialFlatten23getShaderTypesForTargetERKNSt7__cxx1112basic_stringIcSt11char_traitsIcESaIcEEERSt6vectorIS8_SaIS8_EE
libAlembic.so.1.7:_ZN7Alembic11AbcMaterial3v1115MaterialFlatten29getNetworkTerminalTargetNamesERSt6vectorINSt7__cxx1112basic_stringIcSt11char_traitsIcESaIcEEESaIS9_EE
libAlembic.so.1.7:_ZN7Alembic11AbcMaterial3v1115MaterialFlatten38getNetworkTerminalShaderTypesForTargetERKNSt7__cxx1112basic_stringIcSt11char_traitsIcESaIcEEERSt6vectorIS8_SaIS8_EE
libAlembic.so.1.7:_ZN7Alembic11AbcMaterial3v1115MaterialFlatten5emptyEv
libAlembic.so.1.7:_ZN7Alembic11AbcMaterial3v1115MaterialFlatten6appendENS1_15IMaterialSchemaE
libAlembic.so.1.7:_ZN7Alembic11AbcMaterial3v1115MaterialFlatten6appendENS_3Abc3v1113ISchemaObjectINS1_15IMaterialSchemaEEE
libAlembic.so.1.7:_ZN7Alembic11AbcMaterial3v1115MaterialFlatten9getShaderERKNSt7__cxx1112basic_stringIcSt11char_traitsIcESaIcEEESA_RS8_
libAlembic.so.1.7:_ZN7Alembic11AbcMaterial3v1115MaterialFlattenC1ENS1_15IMaterialSchemaE
libAlembic.so.1.7:_ZN7Alembic11AbcMaterial3v1115MaterialFlattenC1ENS_3Abc3v1113ISchemaObjectINS1_15IMaterialSchemaEEE
libAlembic.so.1.7:_ZN7Alembic11AbcMaterial3v1115MaterialFlattenC1ENS_3Abc3v117IObjectENS4_8IArchiveE
libAlembic.so.1.7:_ZN7Alembic11AbcMaterial3v1115MaterialFlattenC1Ev
libAlembic.so.1.7:_ZN7Alembic11AbcMaterial3v1115MaterialFlattenC2ENS1_15IMaterialSchemaE
libAlembic.so.1.7:_ZN7Alembic11AbcMaterial3v1115MaterialFlattenC2ENS_3Abc3v1113ISchemaObjectINS1_15IMaterialSchemaEEE
libAlembic.so.1.7:_ZN7Alembic11AbcMaterial3v1115MaterialFlattenC2ENS_3Abc3v117IObjectENS4_8IArchiveE
libAlembic.so.1.7:_ZN7Alembic11AbcMaterial3v1115MaterialFlattenC2Ev
libAlembic.so.1.7:_ZN7Alembic11AbcMaterial3v1115OMaterialSchema14addNetworkNodeERKNSt7__cxx1112basic_stringIcSt11char_traitsIcESaIcEEESA_SA_
libAlembic.so.1.7:_ZN7Alembic11AbcMaterial3v1115OMaterialSchema18createNodeCompoundEv
libAlembic.so.1.7:_ZN7Alembic11AbcMaterial3v1115OMaterialSchema18setNetworkTerminalERKNSt7__cxx1112basic_stringIcSt11char_traitsIcESaIcEEESA_SA_SA_
libAlembic.so.1.7:_ZN7Alembic11AbcMaterial3v1115OMaterialSchema19getShaderParametersERKNSt7__cxx1112basic_stringIcSt11char_traitsIcESaIcEEESA_
libAlembic.so.1.7:_ZN7Alembic11AbcMaterial3v1115OMaterialSchema24getNetworkNodeParametersERKNSt7__cxx1112basic_stringIcSt11char_traitsIcESaIcEEE
libAlembic.so.1.7:_ZN7Alembic11AbcMaterial3v1115OMaterialSchema24setNetworkNodeConnectionERKNSt7__cxx1112basic_stringIcSt11char_traitsIcESaIcEEESA_SA_SA_
libAlembic.so.1.7:_ZN7Alembic11AbcMaterial3v1115OMaterialSchema29getNetworkInterfaceParametersEv
libAlembic.so.1.7:_ZN7Alembic11AbcMaterial3v1115OMaterialSchema35setNetworkInterfaceParameterMappingERKNSt7__cxx1112basic_stringIcSt11char_traitsIcESaIcEEESA_SA_
libAlembic.so.1.7:_ZN7Alembic11AbcMaterial3v1115OMaterialSchema4initEv
libAlembic.so.1.7:_ZN7Alembic11AbcMaterial3v1115OMaterialSchema9setShaderERKNSt7__cxx1112basic_stringIcSt11char_traitsIcESaIcEEESA_SA_
libAlembic.so.1.7:_ZN7Alembic11AbcMaterial3v1115OMaterialSchemaC1ENS_3Abc3v1117OCompoundPropertyERKNSt7__cxx1112basic_stringIcSt11char_traitsIcESaIcEEERKNS4_8ArgumentESG_SG_
libAlembic.so.1.7:_ZN7Alembic11AbcMaterial3v1115OMaterialSchemaC1ESt10shared_ptrINS_15AbcCoreAbstract3v1122CompoundPropertyWriterEERKNSt7__cxx1112basic_stringIcSt11char_traitsIcESaIcEEERKNS_3Abc3v118ArgumentESK_SK_SK_
libAlembic.so.1.7:_ZN7Alembic11AbcMaterial3v1115OMaterialSchemaC2ENS_3Abc3v1117OCompoundPropertyERKNSt7__cxx1112basic_stringIcSt11char_traitsIcESaIcEEERKNS4_8ArgumentESG_SG_
libAlembic.so.1.7:_ZN7Alembic11AbcMaterial3v1115OMaterialSchemaC2ESt10shared_ptrINS_15AbcCoreAbstract3v1122CompoundPropertyWriterEERKNSt7__cxx1112basic_stringIcSt11char_traitsIcESaIcEEERKNS_3Abc3v118ArgumentESK_SK_SK_
libAlembic.so.1.7:_ZN7Alembic11AbcMaterial3v1121addMaterialAssignmentENS_3Abc3v1117OCompoundPropertyERKNSt7__cxx1112basic_stringIcSt11char_traitsIcESaIcEEESC_
libAlembic.so.1.7:_ZN7Alembic11AbcMaterial3v1121addMaterialAssignmentENS_3Abc3v117OObjectERKNSt7__cxx1112basic_stringIcSt11char_traitsIcESaIcEEESC_
libAlembic.so.1.7:_ZN7Alembic11AbcMaterial3v1125getMaterialAssignmentPathENS_3Abc3v1117ICompoundPropertyERNSt7__cxx1112basic_stringIcSt11char_traitsIcESaIcEEERKSA_
libAlembic.so.1.7:_ZN7Alembic11AbcMaterial3v1125getMaterialAssignmentPathENS_3Abc3v117IObjectERNSt7__cxx1112basic_stringIcSt11char_traitsIcESaIcEEERKSA_
libAlembic.so.1.7:_ZN7Alembic12AbcCoreLayer3v1110SetReplaceERNS_15AbcCoreAbstract3v118MetaDataEb
libAlembic.so.1.7:_ZN7Alembic12AbcCoreLayer3v1111ReadArchiveC1Ev
libAlembic.so.1.7:_ZN7Alembic12AbcCoreLayer3v1111ReadArchiveC2Ev
libAlembic.so.1.7:_ZN7Alembic12AbcCoreLayer3v118SetPruneERNS_15AbcCoreAbstract3v118MetaDataEb
libAlembic.so.1.7:_ZN7Alembic12AbcCoreOgawa3v1111ReadArchiveC1ERKSt6vectorIPSiSaIS4_EE
libAlembic.so.1.7:_ZN7Alembic12AbcCoreOgawa3v1111ReadArchiveC1Emb
libAlembic.so.1.7:_ZN7Alembic12AbcCoreOgawa3v1111ReadArchiveC1Ev
libAlembic.so.1.7:_ZN7Alembic12AbcCoreOgawa3v1111ReadArchiveC2ERKSt6vectorIPSiSaIS4_EE
libAlembic.so.1.7:_ZN7Alembic12AbcCoreOgawa3v1111ReadArchiveC2Emb
libAlembic.so.1.7:_ZN7Alembic12AbcCoreOgawa3v1111ReadArchiveC2Ev
libAlembic.so.1.7:_ZN7Alembic12AbcCoreOgawa3v1112WriteArchiveC1Ev
libAlembic.so.1.7:_ZN7Alembic12AbcCoreOgawa3v1112WriteArchiveC2Ev
libAlembic.so.1.7:_ZN7Alembic13AbcCollection3v1118ICollectionsSchema13getCollectionERKNSt7__cxx1112basic_stringIcSt11char_traitsIcESaIcEEE
libAlembic.so.1.7:_ZN7Alembic13AbcCollection3v1118ICollectionsSchema13getCollectionEm
libAlembic.so.1.7:_ZN7Alembic13AbcCollection3v1118ICollectionsSchema17getCollectionNameB5cxx11Em
libAlembic.so.1.7:_ZN7Alembic13AbcCollection3v1118ICollectionsSchema4initERKNS_3Abc3v118ArgumentES7_
libAlembic.so.1.7:_ZN7Alembic13AbcCollection3v1118OCollectionsSchema13getCollectionERKNSt7__cxx1112basic_stringIcSt11char_traitsIcESaIcEEE
libAlembic.so.1.7:_ZN7Alembic13AbcCollection3v1118OCollectionsSchema13getCollectionEm
libAlembic.so.1.7:_ZN7Alembic13AbcCollection3v1118OCollectionsSchema16createCollectionERKNSt7__cxx1112basic_stringIcSt11char_traitsIcESaIcEEERKNS_3Abc3v118ArgumentESF_SF_
libAlembic.so.1.7:_ZN7Alembic13AbcCollection3v1118OCollectionsSchemaC1ENS_3Abc3v1117OCompoundPropertyERKNSt7__cxx1112basic_stringIcSt11char_traitsIcESaIcEEERKNS4_8ArgumentESG_SG_
libAlembic.so.1.7:_ZN7Alembic13AbcCollection3v1118OCollectionsSchemaC1ESt10shared_ptrINS_15AbcCoreAbstract3v1122CompoundPropertyWriterEERKNSt7__cxx1112basic_stringIcSt11char_traitsIcESaIcEEERKNS_3Abc3v118ArgumentESK_SK_SK_
libAlembic.so.1.7:_ZN7Alembic13AbcCollection3v1118OCollectionsSchemaC2ENS_3Abc3v1117OCompoundPropertyERKNSt7__cxx1112basic_stringIcSt11char_traitsIcESaIcEEERKNS4_8ArgumentESG_SG_
libAlembic.so.1.7:_ZN7Alembic13AbcCollection3v1118OCollectionsSchemaC2ESt10shared_ptrINS_15AbcCoreAbstract3v1122CompoundPropertyWriterEERKNSt7__cxx1112basic_stringIcSt11char_traitsIcESaIcEEERKNS_3Abc3v118ArgumentESK_SK_SK_
libAlembic.so.1.7:_ZN7Alembic14AbcCoreFactory3v118IFactory10getArchiveERKNSt7__cxx1112basic_stringIcSt11char_traitsIcESaIcEEE
libAlembic.so.1.7:_ZN7Alembic14AbcCoreFactory3v118IFactory10getArchiveERKNSt7__cxx1112basic_stringIcSt11char_traitsIcESaIcEEERNS2_8CoreTypeE
libAlembic.so.1.7:_ZN7Alembic14AbcCoreFactory3v118IFactory10getArchiveERKSt6vectorINSt7__cxx1112basic_stringIcSt11char_traitsIcESaIcEEESaIS9_EE
libAlembic.so.1.7:_ZN7Alembic14AbcCoreFactory3v118IFactory10getArchiveERKSt6vectorINSt7__cxx1112basic_stringIcSt11char_traitsIcESaIcEEESaIS9_EERNS2_8CoreTypeE
libAlembic.so.1.7:_ZN7Alembic14AbcCoreFactory3v118IFactory10getArchiveERKSt6vectorIPSiSaIS4_EERNS2_8CoreTypeE
libAlembic.so.1.7:_ZN7Alembic14AbcCoreFactory3v118IFactoryC1Ev
libAlembic.so.1.7:_ZN7Alembic14AbcCoreFactory3v118IFactoryC2Ev
libAlembic.so.1.7:_ZN7Alembic14AbcCoreFactory3v118IFactoryD1Ev
libAlembic.so.1.7:_ZN7Alembic14AbcCoreFactory3v118IFactoryD2Ev
libAlembic.so.1.7:_ZN7Alembic15AbcCoreAbstract3v1112ObjectReader15getChildrenHashERNS_4Util3v116DigestE
libAlembic.so.1.7:_ZN7Alembic15AbcCoreAbstract3v1112ObjectReader17getPropertiesHashERNS_4Util3v116DigestE
libAlembic.so.1.7:_ZN7Alembic15AbcCoreAbstract3v1112ObjectReaderD0Ev
libAlembic.so.1.7:_ZN7Alembic15AbcCoreAbstract3v1112ObjectReaderD1Ev
libAlembic.so.1.7:_ZN7Alembic15AbcCoreAbstract3v1112ObjectReaderD2Ev
libAlembic.so.1.7:_ZN7Alembic15AbcCoreAbstract3v1112ObjectWriter8getChildEm
libAlembic.so.1.7:_ZN7Alembic15AbcCoreAbstract3v1112ObjectWriterD0Ev
libAlembic.so.1.7:_ZN7Alembic15AbcCoreAbstract3v1112ObjectWriterD1Ev
libAlembic.so.1.7:_ZN7Alembic15AbcCoreAbstract3v1112ObjectWriterD2Ev
libAlembic.so.1.7:_ZN7Alembic15AbcCoreAbstract3v1112ScalarSampleC1ERKNS1_8DataTypeE
libAlembic.so.1.7:_ZN7Alembic15AbcCoreAbstract3v1112ScalarSampleC2ERKNS1_8DataTypeE
libAlembic.so.1.7:_ZN7Alembic15AbcCoreAbstract3v1112TimeSampling4initEv
libAlembic.so.1.7:_ZN7Alembic15AbcCoreAbstract3v1112TimeSamplingC1ERKNS1_16TimeSamplingTypeERKSt6vectorIdSaIdEE
libAlembic.so.1.7:_ZN7Alembic15AbcCoreAbstract3v1112TimeSamplingC1ERKS2_
libAlembic.so.1.7:_ZN7Alembic15AbcCoreAbstract3v1112TimeSamplingC1Edd
libAlembic.so.1.7:_ZN7Alembic15AbcCoreAbstract3v1112TimeSamplingC1Ev
libAlembic.so.1.7:_ZN7Alembic15AbcCoreAbstract3v1112TimeSamplingC2ERKNS1_16TimeSamplingTypeERKSt6vectorIdSaIdEE
libAlembic.so.1.7:_ZN7Alembic15AbcCoreAbstract3v1112TimeSamplingC2ERKS2_
libAlembic.so.1.7:_ZN7Alembic15AbcCoreAbstract3v1112TimeSamplingC2Edd
libAlembic.so.1.7:_ZN7Alembic15AbcCoreAbstract3v1112TimeSamplingC2Ev
libAlembic.so.1.7:_ZN7Alembic15AbcCoreAbstract3v1113ArchiveReaderD0Ev
libAlembic.so.1.7:_ZN7Alembic15AbcCoreAbstract3v1113ArchiveReaderD1Ev
libAlembic.so.1.7:_ZN7Alembic15AbcCoreAbstract3v1113ArchiveReaderD2Ev
libAlembic.so.1.7:_ZN7Alembic15AbcCoreAbstract3v1113ArchiveWriterD0Ev
libAlembic.so.1.7:_ZN7Alembic15AbcCoreAbstract3v1113ArchiveWriterD1Ev
libAlembic.so.1.7:_ZN7Alembic15AbcCoreAbstract3v1113ArchiveWriterD2Ev
libAlembic.so.1.7:_ZN7Alembic15AbcCoreAbstract3v1116TimeSamplingType17AcyclicNumSamplesEv
libAlembic.so.1.7:_ZN7Alembic15AbcCoreAbstract3v1116TimeSamplingType19AcyclicTimePerCycleEv
libAlembic.so.1.7:_ZN7Alembic15AbcCoreAbstract3v1117GetLibraryVersionB5cxx11Ev
libAlembic.so.1.7:_ZN7Alembic15AbcCoreAbstract3v1118BasePropertyReader10asArrayPtrEv
libAlembic.so.1.7:_ZN7Alembic15AbcCoreAbstract3v1118BasePropertyReader11asScalarPtrEv
libAlembic.so.1.7:_ZN7Alembic15AbcCoreAbstract3v1118BasePropertyReader13asCompoundPtrEv
libAlembic.so.1.7:_ZN7Alembic15AbcCoreAbstract3v1118BasePropertyReaderD0Ev
libAlembic.so.1.7:_ZN7Alembic15AbcCoreAbstract3v1118BasePropertyReaderD1Ev
libAlembic.so.1.7:_ZN7Alembic15AbcCoreAbstract3v1118BasePropertyReaderD2Ev
libAlembic.so.1.7:_ZN7Alembic15AbcCoreAbstract3v1118BasePropertyWriter10asArrayPtrEv
libAlembic.so.1.7:_ZN7Alembic15AbcCoreAbstract3v1118BasePropertyWriter11asScalarPtrEv
libAlembic.so.1.7:_ZN7Alembic15AbcCoreAbstract3v1118BasePropertyWriter13asCompoundPtrEv
libAlembic.so.1.7:_ZN7Alembic15AbcCoreAbstract3v1118BasePropertyWriterD0Ev
libAlembic.so.1.7:_ZN7Alembic15AbcCoreAbstract3v1118BasePropertyWriterD1Ev
libAlembic.so.1.7:_ZN7Alembic15AbcCoreAbstract3v1118BasePropertyWriterD2Ev
libAlembic.so.1.7:_ZN7Alembic15AbcCoreAbstract3v1119AllocateArraySampleERKNS1_8DataTypeERKNS_4Util3v1114BaseDimensionsImEE
libAlembic.so.1.7:_ZN7Alembic15AbcCoreAbstract3v1119ArrayPropertyReaderD0Ev
libAlembic.so.1.7:_ZN7Alembic15AbcCoreAbstract3v1119ArrayPropertyReaderD1Ev
libAlembic.so.1.7:_ZN7Alembic15AbcCoreAbstract3v1119ArrayPropertyReaderD2Ev
libAlembic.so.1.7:_ZN7Alembic15AbcCoreAbstract3v1119ArrayPropertyWriterD0Ev
libAlembic.so.1.7:_ZN7Alembic15AbcCoreAbstract3v1119ArrayPropertyWriterD1Ev
libAlembic.so.1.7:_ZN7Alembic15AbcCoreAbstract3v1119ArrayPropertyWriterD2Ev
libAlembic.so.1.7:_ZN7Alembic15AbcCoreAbstract3v1120ReadArraySampleCacheD0Ev
libAlembic.so.1.7:_ZN7Alembic15AbcCoreAbstract3v1120ReadArraySampleCacheD1Ev
libAlembic.so.1.7:_ZN7Alembic15AbcCoreAbstract3v1120ReadArraySampleCacheD2Ev
libAlembic.so.1.7:_ZN7Alembic15AbcCoreAbstract3v1120ScalarPropertyReaderD0Ev
libAlembic.so.1.7:_ZN7Alembic15AbcCoreAbstract3v1120ScalarPropertyReaderD1Ev
libAlembic.so.1.7:_ZN7Alembic15AbcCoreAbstract3v1120ScalarPropertyReaderD2Ev
libAlembic.so.1.7:_ZN7Alembic15AbcCoreAbstract3v1120ScalarPropertyWriterD0Ev
libAlembic.so.1.7:_ZN7Alembic15AbcCoreAbstract3v1120ScalarPropertyWriterD1Ev
libAlembic.so.1.7:_ZN7Alembic15AbcCoreAbstract3v1120ScalarPropertyWriterD2Ev
libAlembic.so.1.7:_ZN7Alembic15AbcCoreAbstract3v1122CompoundPropertyReader11getPropertyERKNSt7__cxx1112basic_stringIcSt11char_traitsIcESaIcEEE
libAlembic.so.1.7:_ZN7Alembic15AbcCoreAbstract3v1122CompoundPropertyReader11getPropertyEm
libAlembic.so.1.7:_ZN7Alembic15AbcCoreAbstract3v1122CompoundPropertyReader16getArrayPropertyEm
libAlembic.so.1.7:_ZN7Alembic15AbcCoreAbstract3v1122CompoundPropertyReader17getScalarPropertyEm
libAlembic.so.1.7:_ZN7Alembic15AbcCoreAbstract3v1122CompoundPropertyReader19getCompoundPropertyEm
libAlembic.so.1.7:_ZN7Alembic15AbcCoreAbstract3v1122CompoundPropertyReaderD0Ev
libAlembic.so.1.7:_ZN7Alembic15AbcCoreAbstract3v1122CompoundPropertyReaderD1Ev
libAlembic.so.1.7:_ZN7Alembic15AbcCoreAbstract3v1122CompoundPropertyReaderD2Ev
libAlembic.so.1.7:_ZN7Alembic15AbcCoreAbstract3v1122CompoundPropertyWriter11getPropertyEm
libAlembic.so.1.7:_ZN7Alembic15AbcCoreAbstract3v1122CompoundPropertyWriterD0Ev
libAlembic.so.1.7:_ZN7Alembic15AbcCoreAbstract3v1122CompoundPropertyWriterD1Ev
libAlembic.so.1.7:_ZN7Alembic15AbcCoreAbstract3v1122CompoundPropertyWriterD2Ev
libAlembic.so.1.7:_ZN7Alembic15AbcCoreAbstract3v1122GetLibraryVersionShortB5cxx11Ev
libAlembic.so.1.7:_ZN7Alembic15AbcCoreAbstract3v11lsERSoRKNS1_16TimeSamplingTypeE
libAlembic.so.1.7:_ZN7Alembic3Abc3v1111isReferenceERKNS_15AbcCoreAbstract3v1114PropertyHeaderE
libAlembic.so.1.7:_ZN7Alembic3Abc3v1112ErrorHandler8handleItERKNSt7__cxx1112basic_stringIcSt11char_traitsIcESaIcEEE
libAlembic.so.1.7:_ZN7Alembic3Abc3v1112ErrorHandlerclENS2_20UnknownExceptionFlagERKNSt7__cxx1112basic_stringIcSt11char_traitsIcESaIcEEE
libAlembic.so.1.7:_ZN7Alembic3Abc3v1112ErrorHandlerclERKNSt7__cxx1112basic_stringIcSt11char_traitsIcESaIcEEESA_
libAlembic.so.1.7:_ZN7Alembic3Abc3v1112ErrorHandlerclERSt9exceptionRKNSt7__cxx1112basic_stringIcSt11char_traitsIcESaIcEEE
libAlembic.so.1.7:_ZN7Alembic3Abc3v1112SetReferenceERNS_15AbcCoreAbstract3v118MetaDataE
libAlembic.so.1.7:_ZN7Alembic3Abc3v1113GetSourceNameB5cxx11ERKNS_15AbcCoreAbstract3v118MetaDataE
libAlembic.so.1.7:_ZN7Alembic3Abc3v1113SetSourceNameERNS_15AbcCoreAbstract3v118MetaDataERKNSt7__cxx1112basic_stringIcSt11char_traitsIcESaIcEEE
libAlembic.so.1.7:_ZN7Alembic3Abc3v1114GetArchiveInfoERNS1_8IArchiveERNSt7__cxx1112basic_stringIcSt11char_traitsIcESaIcEEESA_RjSA_SA_
libAlembic.so.1.7:_ZN7Alembic3Abc3v1114IArrayProperty4initESt10shared_ptrINS_15AbcCoreAbstract3v1122CompoundPropertyReaderEERKNSt7__cxx1112basic_stringIcSt11char_traitsIcESaIcEEENS1_12ErrorHandler6PolicyERKNS1_8ArgumentESK_
libAlembic.so.1.7:_ZN7Alembic3Abc3v1114IArrayProperty5getAsEPvNS_4Util3v1116PlainOldDataTypeERKNS1_15ISampleSelectorE
libAlembic.so.1.7:_ZN7Alembic3Abc3v1114IArrayProperty5getAsEPvRKNS1_15ISampleSelectorE
libAlembic.so.1.7:_ZN7Alembic3Abc3v1114IArrayPropertyC1ERKNS1_17ICompoundPropertyERKNSt7__cxx1112basic_stringIcSt11char_traitsIcESaIcEEERKNS1_8ArgumentESG_
libAlembic.so.1.7:_ZN7Alembic3Abc3v1114IArrayPropertyC2ERKNS1_17ICompoundPropertyERKNSt7__cxx1112basic_stringIcSt11char_traitsIcESaIcEEERKNS1_8ArgumentESG_
libAlembic.so.1.7:_ZN7Alembic3Abc3v1114IArrayPropertyD1Ev
libAlembic.so.1.7:_ZN7Alembic3Abc3v1114IArrayPropertyD2Ev
libAlembic.so.1.7:_ZN7Alembic3Abc3v1114OArrayProperty15setFromPreviousEv
libAlembic.so.1.7:_ZN7Alembic3Abc3v1114OArrayProperty15setTimeSamplingESt10shared_ptrINS_15AbcCoreAbstract3v1112TimeSamplingEE
libAlembic.so.1.7:_ZN7Alembic3Abc3v1114OArrayProperty15setTimeSamplingEj
libAlembic.so.1.7:_ZN7Alembic3Abc3v1114OArrayProperty3setERKNS_15AbcCoreAbstract3v1111ArraySampleE
libAlembic.so.1.7:_ZN7Alembic3Abc3v1114OArrayProperty4initESt10shared_ptrINS_15AbcCoreAbstract3v1122CompoundPropertyWriterEERKNSt7__cxx1112basic_stringIcSt11char_traitsIcESaIcEEERKNS5_8DataTypeENS1_12ErrorHandler6PolicyERKNS1_8ArgumentESN_SN_
libAlembic.so.1.7:_ZN7Alembic3Abc3v1114OArrayPropertyC1ENS1_17OCompoundPropertyERKNSt7__cxx1112basic_stringIcSt11char_traitsIcESaIcEEERKNS_15AbcCoreAbstract3v118DataTypeERKNS1_8ArgumentESJ_SJ_
libAlembic.so.1.7:_ZN7Alembic3Abc3v1114OArrayPropertyC2ENS1_17OCompoundPropertyERKNSt7__cxx1112basic_stringIcSt11char_traitsIcESaIcEEERKNS_15AbcCoreAbstract3v118DataTypeERKNS1_8ArgumentESJ_SJ_
libAlembic.so.1.7:_ZN7Alembic3Abc3v1114OArrayPropertyD1Ev
libAlembic.so.1.7:_ZN7Alembic3Abc3v1114OArrayPropertyD2Ev
libAlembic.so.1.7:_ZN7Alembic3Abc3v1115IScalarProperty4initESt10shared_ptrINS_15AbcCoreAbstract3v1122CompoundPropertyReaderEERKNSt7__cxx1112basic_stringIcSt11char_traitsIcESaIcEEENS1_12ErrorHandler6PolicyERKNS1_8ArgumentE
libAlembic.so.1.7:_ZN7Alembic3Abc3v1115IScalarPropertyC1ERKNS1_17ICompoundPropertyERKNSt7__cxx1112basic_stringIcSt11char_traitsIcESaIcEEERKNS1_8ArgumentE
libAlembic.so.1.7:_ZN7Alembic3Abc3v1115IScalarPropertyC2ERKNS1_17ICompoundPropertyERKNSt7__cxx1112basic_stringIcSt11char_traitsIcESaIcEEERKNS1_8ArgumentE
libAlembic.so.1.7:_ZN7Alembic3Abc3v1115IScalarPropertyD1Ev
libAlembic.so.1.7:_ZN7Alembic3Abc3v1115IScalarPropertyD2Ev
libAlembic.so.1.7:_ZN7Alembic3Abc3v1115OScalarProperty15setFromPreviousEv
libAlembic.so.1.7:_ZN7Alembic3Abc3v1115OScalarProperty15setTimeSamplingESt10shared_ptrINS_15AbcCoreAbstract3v1112TimeSamplingEE
libAlembic.so.1.7:_ZN7Alembic3Abc3v1115OScalarProperty15setTimeSamplingEj
libAlembic.so.1.7:_ZN7Alembic3Abc3v1115OScalarProperty3setEPKv
libAlembic.so.1.7:_ZN7Alembic3Abc3v1115OScalarProperty4initESt10shared_ptrINS_15AbcCoreAbstract3v1122CompoundPropertyWriterEERKNSt7__cxx1112basic_stringIcSt11char_traitsIcESaIcEEERKNS5_8DataTypeERKNS1_8ArgumentESL_SL_SL_
libAlembic.so.1.7:_ZN7Alembic3Abc3v1115OScalarPropertyC1ENS1_17OCompoundPropertyERKNSt7__cxx1112basic_stringIcSt11char_traitsIcESaIcEEERKNS_15AbcCoreAbstract3v118DataTypeERKNS1_8ArgumentESJ_SJ_
libAlembic.so.1.7:_ZN7Alembic3Abc3v1115OScalarPropertyC1ESt10shared_ptrINS_15AbcCoreAbstract3v1122CompoundPropertyWriterEERKNSt7__cxx1112basic_stringIcSt11char_traitsIcESaIcEEERKNS5_8DataTypeERKNS1_8ArgumentESL_SL_SL_
libAlembic.so.1.7:_ZN7Alembic3Abc3v1115OScalarPropertyC2ENS1_17OCompoundPropertyERKNSt7__cxx1112basic_stringIcSt11char_traitsIcESaIcEEERKNS_15AbcCoreAbstract3v118DataTypeERKNS1_8ArgumentESJ_SJ_
libAlembic.so.1.7:_ZN7Alembic3Abc3v1115OScalarPropertyC2ESt10shared_ptrINS_15AbcCoreAbstract3v1122CompoundPropertyWriterEERKNSt7__cxx1112basic_stringIcSt11char_traitsIcESaIcEEERKNS5_8DataTypeERKNS1_8ArgumentESL_SL_SL_
libAlembic.so.1.7:_ZN7Alembic3Abc3v1115OScalarPropertyD1Ev
libAlembic.so.1.7:_ZN7Alembic3Abc3v1115OScalarPropertyD2Ev
libAlembic.so.1.7:_ZN7Alembic3Abc3v1117ICompoundProperty4initERKNS1_7IObjectERKNS1_8ArgumentES8_
libAlembic.so.1.7:_ZN7Alembic3Abc3v1117ICompoundProperty4initESt10shared_ptrINS_15AbcCoreAbstract3v1122CompoundPropertyReaderEERKNSt7__cxx1112basic_stringIcSt11char_traitsIcESaIcEEENS1_12ErrorHandler6PolicyERKNS1_8ArgumentE
libAlembic.so.1.7:_ZN7Alembic3Abc3v1117ICompoundPropertyC1ERKNS1_7IObjectENS1_7TopFlagERKNS1_8ArgumentES9_
libAlembic.so.1.7:_ZN7Alembic3Abc3v1117ICompoundPropertyC1ERKNS1_7IObjectERKNS1_8ArgumentES8_
libAlembic.so.1.7:_ZN7Alembic3Abc3v1117ICompoundPropertyC1ERKS2_RKNSt7__cxx1112basic_stringIcSt11char_traitsIcESaIcEEERKNS1_8ArgumentE
libAlembic.so.1.7:_ZN7Alembic3Abc3v1117ICompoundPropertyC1ESt10shared_ptrINS_15AbcCoreAbstract3v1122CompoundPropertyReaderEENS1_16WrapExistingFlagERKNS1_8ArgumentESB_
libAlembic.so.1.7:_ZN7Alembic3Abc3v1117ICompoundPropertyC1ESt10shared_ptrINS_15AbcCoreAbstract3v1122CompoundPropertyReaderEERKNS1_8ArgumentESA_
libAlembic.so.1.7:_ZN7Alembic3Abc3v1117ICompoundPropertyC2ERKNS1_7IObjectENS1_7TopFlagERKNS1_8ArgumentES9_
libAlembic.so.1.7:_ZN7Alembic3Abc3v1117ICompoundPropertyC2ERKNS1_7IObjectERKNS1_8ArgumentES8_
libAlembic.so.1.7:_ZN7Alembic3Abc3v1117ICompoundPropertyC2ERKS2_RKNSt7__cxx1112basic_stringIcSt11char_traitsIcESaIcEEERKNS1_8ArgumentE
libAlembic.so.1.7:_ZN7Alembic3Abc3v1117ICompoundPropertyC2ESt10shared_ptrINS_15AbcCoreAbstract3v1122CompoundPropertyReaderEENS1_16WrapExistingFlagERKNS1_8ArgumentESB_
libAlembic.so.1.7:_ZN7Alembic3Abc3v1117ICompoundPropertyC2ESt10shared_ptrINS_15AbcCoreAbstract3v1122CompoundPropertyReaderEERKNS1_8ArgumentESA_
libAlembic.so.1.7:_ZN7Alembic3Abc3v1117ICompoundPropertyD1Ev
libAlembic.so.1.7:_ZN7Alembic3Abc3v1117ICompoundPropertyD2Ev
libAlembic.so.1.7:_ZN7Alembic3Abc3v1117OCompoundProperty4initENS1_7OObjectERKNS1_8ArgumentES6_
libAlembic.so.1.7:_ZN7Alembic3Abc3v1117OCompoundProperty4initESt10shared_ptrINS_15AbcCoreAbstract3v1122CompoundPropertyWriterEERKNSt7__cxx1112basic_stringIcSt11char_traitsIcESaIcEEERKNS1_8ArgumentESI_SI_
libAlembic.so.1.7:_ZN7Alembic3Abc3v1117OCompoundPropertyC1ENS1_7OObjectENS1_7TopFlagERKNS1_8ArgumentES7_
libAlembic.so.1.7:_ZN7Alembic3Abc3v1117OCompoundPropertyC1ENS1_7OObjectERKNS1_8ArgumentES6_
libAlembic.so.1.7:_ZN7Alembic3Abc3v1117OCompoundPropertyC1ES2_RKNSt7__cxx1112basic_stringIcSt11char_traitsIcESaIcEEERKNS1_8ArgumentESD_
libAlembic.so.1.7:_ZN7Alembic3Abc3v1117OCompoundPropertyC1ESt10shared_ptrINS_15AbcCoreAbstract3v1122CompoundPropertyWriterEENS1_16WrapExistingFlagERKNS1_8ArgumentESB_
libAlembic.so.1.7:_ZN7Alembic3Abc3v1117OCompoundPropertyC1ESt10shared_ptrINS_15AbcCoreAbstract3v1122CompoundPropertyWriterEERKNS1_8ArgumentESA_
libAlembic.so.1.7:_ZN7Alembic3Abc3v1117OCompoundPropertyC1ESt10shared_ptrINS_15AbcCoreAbstract3v1122CompoundPropertyWriterEERKNSt7__cxx1112basic_stringIcSt11char_traitsIcESaIcEEERKNS1_8ArgumentESI_
libAlembic.so.1.7:_ZN7Alembic3Abc3v1117OCompoundPropertyC2ENS1_7OObjectENS1_7TopFlagERKNS1_8ArgumentES7_
libAlembic.so.1.7:_ZN7Alembic3Abc3v1117OCompoundPropertyC2ENS1_7OObjectERKNS1_8ArgumentES6_
libAlembic.so.1.7:_ZN7Alembic3Abc3v1117OCompoundPropertyC2ES2_RKNSt7__cxx1112basic_stringIcSt11char_traitsIcESaIcEEERKNS1_8ArgumentESD_
libAlembic.so.1.7:_ZN7Alembic3Abc3v1117OCompoundPropertyC2ESt10shared_ptrINS_15AbcCoreAbstract3v1122CompoundPropertyWriterEENS1_16WrapExistingFlagERKNS1_8ArgumentESB_
libAlembic.so.1.7:_ZN7Alembic3Abc3v1117OCompoundPropertyC2ESt10shared_ptrINS_15AbcCoreAbstract3v1122CompoundPropertyWriterEERKNS1_8ArgumentESA_
libAlembic.so.1.7:_ZN7Alembic3Abc3v1117OCompoundPropertyC2ESt10shared_ptrINS_15AbcCoreAbstract3v1122CompoundPropertyWriterEERKNSt7__cxx1112basic_stringIcSt11char_traitsIcESaIcEEERKNS1_8ArgumentESI_
libAlembic.so.1.7:_ZN7Alembic3Abc3v1117OCompoundPropertyD1Ev
libAlembic.so.1.7:_ZN7Alembic3Abc3v1117OCompoundPropertyD2Ev
libAlembic.so.1.7:_ZN7Alembic3Abc3v1125GetArchiveStartAndEndTimeERNS1_8IArchiveERdS4_
libAlembic.so.1.7:_ZN7Alembic3Abc3v117IObject12initInstanceEv
libAlembic.so.1.7:_ZN7Alembic3Abc3v117IObject15getChildrenHashERNS_4Util3v116DigestE
libAlembic.so.1.7:_ZN7Alembic3Abc3v117IObject17getPropertiesHashERNS_4Util3v116DigestE
libAlembic.so.1.7:_ZN7Alembic3Abc3v117IObject4initERNS1_8IArchiveERKNS1_8ArgumentE
libAlembic.so.1.7:_ZN7Alembic3Abc3v117IObject4initESt10shared_ptrINS_15AbcCoreAbstract3v1112ObjectReaderEERKNSt7__cxx1112basic_stringIcSt11char_traitsIcESaIcEEENS1_12ErrorHandler6PolicyE
libAlembic.so.1.7:_ZN7Alembic3Abc3v117IObject5resetEv
libAlembic.so.1.7:_ZN7Alembic3Abc3v117IObjectD0Ev
libAlembic.so.1.7:_ZN7Alembic3Abc3v117IObjectD1Ev
libAlembic.so.1.7:_ZN7Alembic3Abc3v117IObjectD2Ev
libAlembic.so.1.7:_ZN7Alembic3Abc3v117OObject10getArchiveEv
libAlembic.so.1.7:_ZN7Alembic3Abc3v117OObject13getPropertiesEv
libAlembic.so.1.7:_ZN7Alembic3Abc3v117OObject14getChildHeaderERKNSt7__cxx1112basic_stringIcSt11char_traitsIcESaIcEEE
libAlembic.so.1.7:_ZN7Alembic3Abc3v117OObject14getChildHeaderEm
libAlembic.so.1.7:_ZN7Alembic3Abc3v117OObject14getNumChildrenEv
libAlembic.so.1.7:_ZN7Alembic3Abc3v117OObject16addChildInstanceES2_RKNSt7__cxx1112basic_stringIcSt11char_traitsIcESaIcEEE
libAlembic.so.1.7:_ZN7Alembic3Abc3v117OObject4initERNS1_8OArchiveERKNS1_8ArgumentES7_S7_
libAlembic.so.1.7:_ZN7Alembic3Abc3v117OObject4initESt10shared_ptrINS_15AbcCoreAbstract3v1112ObjectWriterEERKNSt7__cxx1112basic_stringIcSt11char_traitsIcESaIcEEENS1_12ErrorHandler6PolicyERKNS1_8ArgumentESK_SK_
libAlembic.so.1.7:_ZN7Alembic3Abc3v117OObject8getChildERKNSt7__cxx1112basic_stringIcSt11char_traitsIcESaIcEEE
libAlembic.so.1.7:_ZN7Alembic3Abc3v117OObject8getChildEm
libAlembic.so.1.7:_ZN7Alembic3Abc3v117OObject9getParentEv
libAlembic.so.1.7:_ZN7Alembic3Abc3v117OObjectC1ES2_RKNSt7__cxx1112basic_stringIcSt11char_traitsIcESaIcEEERKNS1_8ArgumentESD_SD_
libAlembic.so.1.7:_ZN7Alembic3Abc3v117OObjectC2ES2_RKNSt7__cxx1112basic_stringIcSt11char_traitsIcESaIcEEERKNS1_8ArgumentESD_SD_
libAlembic.so.1.7:_ZN7Alembic3Abc3v117OObjectD0Ev
libAlembic.so.1.7:_ZN7Alembic3Abc3v117OObjectD1Ev
libAlembic.so.1.7:_ZN7Alembic3Abc3v117OObjectD2Ev
libAlembic.so.1.7:_ZN7Alembic3Abc3v118IArchive15getTimeSamplingEj
libAlembic.so.1.7:_ZN7Alembic3Abc3v118IArchive17getArchiveVersionEv
libAlembic.so.1.7:_ZN7Alembic3Abc3v118IArchive19getNumTimeSamplingsEv
libAlembic.so.1.7:_ZN7Alembic3Abc3v118IArchive26getReadArraySampleCachePtrEv
libAlembic.so.1.7:_ZN7Alembic3Abc3v118IArchive26setReadArraySampleCachePtrESt10shared_ptrINS_15AbcCoreAbstract3v1120ReadArraySampleCacheEE
libAlembic.so.1.7:_ZN7Alembic3Abc3v118IArchive36getMaxNumSamplesForTimeSamplingIndexEj
libAlembic.so.1.7:_ZN7Alembic3Abc3v118IArchiveD1Ev
libAlembic.so.1.7:_ZN7Alembic3Abc3v118IArchiveD2Ev
libAlembic.so.1.7:_ZN7Alembic3Abc3v118OArchive15addTimeSamplingERKNS_15AbcCoreAbstract3v1112TimeSamplingE
libAlembic.so.1.7:_ZN7Alembic3Abc3v118OArchive15getTimeSamplingEj
libAlembic.so.1.7:_ZN7Alembic3Abc3v118OArchive18setCompressionHintEa
libAlembic.so.1.7:_ZN7Alembic3Abc3v118OArchive19getNumTimeSamplingsEv
libAlembic.so.1.7:_ZN7Alembic3Abc3v118OArchive6getTopEv
libAlembic.so.1.7:_ZN7Alembic3Abc3v118OArchiveD1Ev
libAlembic.so.1.7:_ZN7Alembic3Abc3v118OArchiveD2Ev
libAlembic.so.1.7:_ZN7Alembic4Util3v1110SpookyHash4InitEmm
libAlembic.so.1.7:_ZN7Alembic4Util3v1110SpookyHash5FinalEPmS3_
libAlembic.so.1.7:_ZN7Alembic4Util3v1110SpookyHash5ShortEPKvmPmS5_
libAlembic.so.1.7:_ZN7Alembic4Util3v1110SpookyHash6UpdateEPKvm
libAlembic.so.1.7:_ZN7Alembic4Util3v1110SpookyHash7Hash128EPKvmPmS5_
libAlembic.so.1.7:_ZN7Alembic4Util3v1114isStandardNameERKNSt7__cxx1112basic_stringIcSt11char_traitsIcESaIcEEE
libAlembic.so.1.7:_ZN7Alembic4Util3v1116makeStandardNameERNSt7__cxx1112basic_stringIcSt11char_traitsIcESaIcEEEc
libAlembic.so.1.7:_ZN7Alembic4Util3v1119MurmurHash3_x64_128EPKvmmPv
libAlembic.so.1.7:_ZN7Alembic4Util3v118TokenMap3setERKNSt7__cxx1112basic_stringIcSt11char_traitsIcESaIcEEEcc
libAlembic.so.1.7:_ZN7Alembic4Util3v118TokenMap9setUniqueERKNSt7__cxx1112basic_stringIcSt11char_traitsIcESaIcEEEccb
libAlembic.so.1.7:_ZN7Alembic5Ogawa3v115IData4readEmPvmm
libAlembic.so.1.7:_ZN7Alembic5Ogawa3v115IDataC1ESt10shared_ptrINS1_8IStreamsEEmm
libAlembic.so.1.7:_ZN7Alembic5Ogawa3v115IDataC2ESt10shared_ptrINS1_8IStreamsEEmm
libAlembic.so.1.7:_ZN7Alembic5Ogawa3v115IDataD1Ev
libAlembic.so.1.7:_ZN7Alembic5Ogawa3v115IDataD2Ev
libAlembic.so.1.7:_ZN7Alembic5Ogawa3v115OData7rewriteEmPvm
libAlembic.so.1.7:_ZN7Alembic5Ogawa3v115ODataC1ESt10shared_ptrINS1_7OStreamEEmm
libAlembic.so.1.7:_ZN7Alembic5Ogawa3v115ODataC1Ev
libAlembic.so.1.7:_ZN7Alembic5Ogawa3v115ODataC2ESt10shared_ptrINS1_7OStreamEEmm
libAlembic.so.1.7:_ZN7Alembic5Ogawa3v115ODataC2Ev
libAlembic.so.1.7:_ZN7Alembic5Ogawa3v115ODataD1Ev
libAlembic.so.1.7:_ZN7Alembic5Ogawa3v115ODataD2Ev
libAlembic.so.1.7:_ZN7Alembic5Ogawa3v116IGroup7getDataEmm
libAlembic.so.1.7:_ZN7Alembic5Ogawa3v116IGroup8getGroupEmbm
libAlembic.so.1.7:_ZN7Alembic5Ogawa3v116IGroupC1ESt10shared_ptrINS1_8IStreamsEEmbm
libAlembic.so.1.7:_ZN7Alembic5Ogawa3v116IGroupC2ESt10shared_ptrINS1_8IStreamsEEmbm
libAlembic.so.1.7:_ZN7Alembic5Ogawa3v116IGroupD1Ev
libAlembic.so.1.7:_ZN7Alembic5Ogawa3v116IGroupD2Ev
libAlembic.so.1.7:_ZN7Alembic5Ogawa3v116OGroup10createDataEmPKmPPKv
libAlembic.so.1.7:_ZN7Alembic5Ogawa3v116OGroup10createDataEmPKv
libAlembic.so.1.7:_ZN7Alembic5Ogawa3v116OGroup11replaceDataEmSt10shared_ptrINS1_5ODataEE
libAlembic.so.1.7:_ZN7Alembic5Ogawa3v116OGroup12addEmptyDataEv
libAlembic.so.1.7:_ZN7Alembic5Ogawa3v116OGroup13addEmptyGroupEv
libAlembic.so.1.7:_ZN7Alembic5Ogawa3v116OGroup6freezeEv
libAlembic.so.1.7:_ZN7Alembic5Ogawa3v116OGroup7addDataESt10shared_ptrINS1_5ODataEE
libAlembic.so.1.7:_ZN7Alembic5Ogawa3v116OGroup7addDataEmPKmPPKv
libAlembic.so.1.7:_ZN7Alembic5Ogawa3v116OGroup7addDataEmPKv
libAlembic.so.1.7:_ZN7Alembic5Ogawa3v116OGroup8addGroupESt10shared_ptrIS2_E
libAlembic.so.1.7:_ZN7Alembic5Ogawa3v116OGroup8addGroupEv
libAlembic.so.1.7:_ZN7Alembic5Ogawa3v116OGroup8isFrozenEv
libAlembic.so.1.7:_ZN7Alembic5Ogawa3v116OGroupC1ESt10shared_ptrINS1_7OStreamEE
libAlembic.so.1.7:_ZN7Alembic5Ogawa3v116OGroupC1ESt10shared_ptrIS2_Em
libAlembic.so.1.7:_ZN7Alembic5Ogawa3v116OGroupC2ESt10shared_ptrINS1_7OStreamEE
libAlembic.so.1.7:_ZN7Alembic5Ogawa3v116OGroupC2ESt10shared_ptrIS2_Em
libAlembic.so.1.7:_ZN7Alembic5Ogawa3v116OGroupD1Ev
libAlembic.so.1.7:_ZN7Alembic5Ogawa3v116OGroupD2Ev
libAlembic.so.1.7:_ZN7Alembic5Ogawa3v117OStream16getAndSeekEndPosEv
libAlembic.so.1.7:_ZN7Alembic5Ogawa3v117OStream4initEv
libAlembic.so.1.7:_ZN7Alembic5Ogawa3v117OStream4seekEm
libAlembic.so.1.7:_ZN7Alembic5Ogawa3v117OStream5writeEPKvm
libAlembic.so.1.7:_ZN7Alembic5Ogawa3v117OStream7isValidEv
libAlembic.so.1.7:_ZN7Alembic5Ogawa3v117OStreamC1EPSo
libAlembic.so.1.7:_ZN7Alembic5Ogawa3v117OStreamC1ERKNSt7__cxx1112basic_stringIcSt11char_traitsIcESaIcEEE
libAlembic.so.1.7:_ZN7Alembic5Ogawa3v117OStreamC2EPSo
libAlembic.so.1.7:_ZN7Alembic5Ogawa3v117OStreamC2ERKNSt7__cxx1112basic_stringIcSt11char_traitsIcESaIcEEE
libAlembic.so.1.7:_ZN7Alembic5Ogawa3v117OStreamD1Ev
libAlembic.so.1.7:_ZN7Alembic5Ogawa3v117OStreamD2Ev
libAlembic.so.1.7:_ZN7Alembic5Ogawa3v118IArchive4initEv
libAlembic.so.1.7:_ZN7Alembic5Ogawa3v118IArchiveC1ERKNSt7__cxx1112basic_stringIcSt11char_traitsIcESaIcEEEmb
libAlembic.so.1.7:_ZN7Alembic5Ogawa3v118IArchiveC1ERKSt6vectorIPSiSaIS4_EE
libAlembic.so.1.7:_ZN7Alembic5Ogawa3v118IArchiveC2ERKNSt7__cxx1112basic_stringIcSt11char_traitsIcESaIcEEEmb
libAlembic.so.1.7:_ZN7Alembic5Ogawa3v118IArchiveC2ERKSt6vectorIPSiSaIS4_EE
libAlembic.so.1.7:_ZN7Alembic5Ogawa3v118IArchiveD1Ev
libAlembic.so.1.7:_ZN7Alembic5Ogawa3v118IArchiveD2Ev
libAlembic.so.1.7:_ZN7Alembic5Ogawa3v118IStreams10getVersionEv
libAlembic.so.1.7:_ZN7Alembic5Ogawa3v118IStreams4readEmmmPv
libAlembic.so.1.7:_ZN7Alembic5Ogawa3v118IStreams7isValidEv
libAlembic.so.1.7:_ZN7Alembic5Ogawa3v118IStreams8isFrozenEv
libAlembic.so.1.7:_ZN7Alembic5Ogawa3v118IStreamsC1ERKNSt7__cxx1112basic_stringIcSt11char_traitsIcESaIcEEEmb
libAlembic.so.1.7:_ZN7Alembic5Ogawa3v118IStreamsC1ERKSt6vectorIPSiSaIS4_EE
libAlembic.so.1.7:_ZN7Alembic5Ogawa3v118IStreamsC2ERKNSt7__cxx1112basic_stringIcSt11char_traitsIcESaIcEEEmb
libAlembic.so.1.7:_ZN7Alembic5Ogawa3v118IStreamsC2ERKSt6vectorIPSiSaIS4_EE
libAlembic.so.1.7:_ZN7Alembic5Ogawa3v118IStreamsD1Ev
libAlembic.so.1.7:_ZN7Alembic5Ogawa3v118IStreamsD2Ev
libAlembic.so.1.7:_ZN7Alembic5Ogawa3v118OArchive7isValidEv
libAlembic.so.1.7:_ZN7Alembic5Ogawa3v118OArchive8getGroupEv
libAlembic.so.1.7:_ZN7Alembic5Ogawa3v118OArchiveC1EPSo
libAlembic.so.1.7:_ZN7Alembic5Ogawa3v118OArchiveC1ERKNSt7__cxx1112basic_stringIcSt11char_traitsIcESaIcEEE
libAlembic.so.1.7:_ZN7Alembic5Ogawa3v118OArchiveC2EPSo
libAlembic.so.1.7:_ZN7Alembic5Ogawa3v118OArchiveC2ERKNSt7__cxx1112basic_stringIcSt11char_traitsIcESaIcEEE
libAlembic.so.1.7:_ZN7Alembic5Ogawa3v118OArchiveD1Ev
libAlembic.so.1.7:_ZN7Alembic5Ogawa3v118OArchiveD2Ev
libAlembic.so.1.7:_ZN7Alembic7AbcGeom3v1111ISubDSchema10getFaceSetERKNSt7__cxx1112basic_stringIcSt11char_traitsIcESaIcEEE
libAlembic.so.1.7:_ZN7Alembic7AbcGeom3v1111ISubDSchema10hasFaceSetERKNSt7__cxx1112basic_stringIcSt11char_traitsIcESaIcEEE
libAlembic.so.1.7:_ZN7Alembic7AbcGeom3v1111ISubDSchema15getFaceSetNamesERSt6vectorINSt7__cxx1112basic_stringIcSt11char_traitsIcESaIcEEESaIS9_EE
libAlembic.so.1.7:_ZN7Alembic7AbcGeom3v1111ISubDSchema16loadFaceSetNamesEv
libAlembic.so.1.7:_ZN7Alembic7AbcGeom3v1111ISubDSchema4initERKNS_3Abc3v118ArgumentES7_
libAlembic.so.1.7:_ZN7Alembic7AbcGeom3v1111ISubDSchemaaSERKS2_
libAlembic.so.1.7:_ZN7Alembic7AbcGeom3v1111OSubDSchema10getFaceSetERKNSt7__cxx1112basic_stringIcSt11char_traitsIcESaIcEEE
libAlembic.so.1.7:_ZN7Alembic7AbcGeom3v1111OSubDSchema10hasFaceSetERKNSt7__cxx1112basic_stringIcSt11char_traitsIcESaIcEEE
libAlembic.so.1.7:_ZN7Alembic7AbcGeom3v1111OSubDSchema11initCornersEj
libAlembic.so.1.7:_ZN7Alembic7AbcGeom3v1111OSubDSchema11initCreasesEj
libAlembic.so.1.7:_ZN7Alembic7AbcGeom3v1111OSubDSchema12selectiveSetERKNS2_6SampleE
libAlembic.so.1.7:_ZN7Alembic7AbcGeom3v1111OSubDSchema13createFaceSetERKNSt7__cxx1112basic_stringIcSt11char_traitsIcESaIcEEE
libAlembic.so.1.7:_ZN7Alembic7AbcGeom3v1111OSubDSchema15getFaceSetNamesERSt6vectorINSt7__cxx1112basic_stringIcSt11char_traitsIcESaIcEEESaIS9_EE
libAlembic.so.1.7:_ZN7Alembic7AbcGeom3v1111OSubDSchema15setFromPreviousEv
libAlembic.so.1.7:_ZN7Alembic7AbcGeom3v1111OSubDSchema15setTimeSamplingESt10shared_ptrINS_15AbcCoreAbstract3v1112TimeSamplingEE
libAlembic.so.1.7:_ZN7Alembic7AbcGeom3v1111OSubDSchema15setTimeSamplingEj
libAlembic.so.1.7:_ZN7Alembic7AbcGeom3v1111OSubDSchema15setUVSourceNameERKNSt7__cxx1112basic_stringIcSt11char_traitsIcESaIcEEE
libAlembic.so.1.7:_ZN7Alembic7AbcGeom3v1111OSubDSchema17createUVsPropertyERKNS2_6SampleE
libAlembic.so.1.7:_ZN7Alembic7AbcGeom3v1111OSubDSchema23createPositionsPropertyEv
libAlembic.so.1.7:_ZN7Alembic7AbcGeom3v1111OSubDSchema24createSubDSchemePropertyEv
libAlembic.so.1.7:_ZN7Alembic7AbcGeom3v1111OSubDSchema24createVelocitiesPropertyEv
libAlembic.so.1.7:_ZN7Alembic7AbcGeom3v1111OSubDSchema33createInterpolateBoundaryPropertyEv
libAlembic.so.1.7:_ZN7Alembic7AbcGeom3v1111OSubDSchema3setERKNS2_6SampleE
libAlembic.so.1.7:_ZN7Alembic7AbcGeom3v1111OSubDSchema41createFaceVaryingPropagateCornersPropertyEv
libAlembic.so.1.7:_ZN7Alembic7AbcGeom3v1111OSubDSchema44createFaceVaryingInterpolateBoundaryPropertyEv
libAlembic.so.1.7:_ZN7Alembic7AbcGeom3v1111OSubDSchema4initEjb
libAlembic.so.1.7:_ZN7Alembic7AbcGeom3v1111OSubDSchema9initHolesEj
libAlembic.so.1.7:_ZN7Alembic7AbcGeom3v1111OSubDSchemaC1ENS_3Abc3v1117OCompoundPropertyERKNSt7__cxx1112basic_stringIcSt11char_traitsIcESaIcEEERKNS4_8ArgumentESG_SG_
libAlembic.so.1.7:_ZN7Alembic7AbcGeom3v1111OSubDSchemaC1ESt10shared_ptrINS_15AbcCoreAbstract3v1122CompoundPropertyWriterEERKNSt7__cxx1112basic_stringIcSt11char_traitsIcESaIcEEERKNS_3Abc3v118ArgumentESK_SK_SK_
libAlembic.so.1.7:_ZN7Alembic7AbcGeom3v1111OSubDSchemaC2ENS_3Abc3v1117OCompoundPropertyERKNSt7__cxx1112basic_stringIcSt11char_traitsIcESaIcEEERKNS4_8ArgumentESG_SG_
libAlembic.so.1.7:_ZN7Alembic7AbcGeom3v1111OSubDSchemaC2ESt10shared_ptrINS_15AbcCoreAbstract3v1122CompoundPropertyWriterEERKNSt7__cxx1112basic_stringIcSt11char_traitsIcESaIcEEERKNS_3Abc3v118ArgumentESK_SK_SK_
libAlembic.so.1.7:_ZN7Alembic7AbcGeom3v1111XformSample11setRotationERKN9Imath_2_34Vec3IdEEd
libAlembic.so.1.7:_ZN7Alembic7AbcGeom3v1111XformSample12setXRotationEd
libAlembic.so.1.7:_ZN7Alembic7AbcGeom3v1111XformSample12setYRotationEd
libAlembic.so.1.7:_ZN7Alembic7AbcGeom3v1111XformSample12setZRotationEd
libAlembic.so.1.7:_ZN7Alembic7AbcGeom3v1111XformSample14freezeTopologyEv
libAlembic.so.1.7:_ZN7Alembic7AbcGeom3v1111XformSample14setTranslationERKN9Imath_2_34Vec3IdEE
libAlembic.so.1.7:_ZN7Alembic7AbcGeom3v1111XformSample15isTopologyEqualERKS2_
libAlembic.so.1.7:_ZN7Alembic7AbcGeom3v1111XformSample17setInheritsXformsEb
libAlembic.so.1.7:_ZN7Alembic7AbcGeom3v1111XformSample5addOpENS1_7XformOpERKN9Imath_2_34Vec3IdEE
libAlembic.so.1.7:_ZN7Alembic7AbcGeom3v1111XformSample5addOpENS1_7XformOpERKN9Imath_2_34Vec3IdEEd
libAlembic.so.1.7:_ZN7Alembic7AbcGeom3v1111XformSample5addOpENS1_7XformOpERKN9Imath_2_38Matrix44IdEE
libAlembic.so.1.7:_ZN7Alembic7AbcGeom3v1111XformSample5addOpENS1_7XformOpEd
libAlembic.so.1.7:_ZN7Alembic7AbcGeom3v1111XformSample5addOpERKNS1_7XformOpE
libAlembic.so.1.7:_ZN7Alembic7AbcGeom3v1111XformSample5clearEv
libAlembic.so.1.7:_ZN7Alembic7AbcGeom3v1111XformSample5resetEv
libAlembic.so.1.7:_ZN7Alembic7AbcGeom3v1111XformSample8setScaleERKN9Imath_2_34Vec3IdEE
libAlembic.so.1.7:_ZN7Alembic7AbcGeom3v1111XformSample9setMatrixERKN9Imath_2_38Matrix44IdEE
libAlembic.so.1.7:_ZN7Alembic7AbcGeom3v1111XformSampleC1Ev
libAlembic.so.1.7:_ZN7Alembic7AbcGeom3v1111XformSampleC2Ev
libAlembic.so.1.7:_ZN7Alembic7AbcGeom3v1111XformSampleixERKm
libAlembic.so.1.7:_ZN7Alembic7AbcGeom3v1112CameraSample15getScreenWindowERdS3_S3_S3_
libAlembic.so.1.7:_ZN7Alembic7AbcGeom3v1112CameraSample5addOpENS1_15FilmBackXformOpE
libAlembic.so.1.7:_ZN7Alembic7AbcGeom3v1112CameraSampleC1Edddd
libAlembic.so.1.7:_ZN7Alembic7AbcGeom3v1112CameraSampleC2Edddd
libAlembic.so.1.7:_ZN7Alembic7AbcGeom3v1112CameraSampleixERKm
libAlembic.so.1.7:_ZN7Alembic7AbcGeom3v1112ILightSchema4initERKNS_3Abc3v118ArgumentES7_
libAlembic.so.1.7:_ZN7Alembic7AbcGeom3v1112IXformSchema4initERKNS_3Abc3v118ArgumentES7_
libAlembic.so.1.7:_ZN7Alembic7AbcGeom3v1112OLightSchema13getNumSamplesEv
libAlembic.so.1.7:_ZN7Alembic7AbcGeom3v1112OLightSchema15setCameraSampleERKNS1_12CameraSampleE
libAlembic.so.1.7:_ZN7Alembic7AbcGeom3v1112OLightSchema15setFromPreviousEv
libAlembic.so.1.7:_ZN7Alembic7AbcGeom3v1112OLightSchema15setTimeSamplingESt10shared_ptrINS_15AbcCoreAbstract3v1112TimeSamplingEE
libAlembic.so.1.7:_ZN7Alembic7AbcGeom3v1112OLightSchema15setTimeSamplingEj
libAlembic.so.1.7:_ZN7Alembic7AbcGeom3v1112OLightSchema16getArbGeomParamsEv
libAlembic.so.1.7:_ZN7Alembic7AbcGeom3v1112OLightSchema17getUserPropertiesEv
libAlembic.so.1.7:_ZN7Alembic7AbcGeom3v1112OLightSchema22getChildBoundsPropertyEv
libAlembic.so.1.7:_ZN7Alembic7AbcGeom3v1112OLightSchema4initESt10shared_ptrINS_15AbcCoreAbstract3v1122CompoundPropertyWriterEERKNS_3Abc3v118ArgumentESC_SC_SC_
libAlembic.so.1.7:_ZN7Alembic7AbcGeom3v1112OLightSchemaC1ENS_3Abc3v1117OCompoundPropertyERKNSt7__cxx1112basic_stringIcSt11char_traitsIcESaIcEEERKNS4_8ArgumentESG_SG_
libAlembic.so.1.7:_ZN7Alembic7AbcGeom3v1112OLightSchemaC1ESt10shared_ptrINS_15AbcCoreAbstract3v1122CompoundPropertyWriterEERKNSt7__cxx1112basic_stringIcSt11char_traitsIcESaIcEEERKNS_3Abc3v118ArgumentESK_SK_SK_
libAlembic.so.1.7:_ZN7Alembic7AbcGeom3v1112OLightSchemaC2ENS_3Abc3v1117OCompoundPropertyERKNSt7__cxx1112basic_stringIcSt11char_traitsIcESaIcEEERKNS4_8ArgumentESG_SG_
libAlembic.so.1.7:_ZN7Alembic7AbcGeom3v1112OLightSchemaC2ESt10shared_ptrINS_15AbcCoreAbstract3v1122CompoundPropertyWriterEERKNSt7__cxx1112basic_stringIcSt11char_traitsIcESaIcEEERKNS_3Abc3v118ArgumentESK_SK_SK_
libAlembic.so.1.7:_ZN7Alembic7AbcGeom3v1112OXformSchema15setFromPreviousEv
libAlembic.so.1.7:_ZN7Alembic7AbcGeom3v1112OXformSchema15setTimeSamplingESt10shared_ptrINS_15AbcCoreAbstract3v1112TimeSamplingEE
libAlembic.so.1.7:_ZN7Alembic7AbcGeom3v1112OXformSchema15setTimeSamplingEj
libAlembic.so.1.7:_ZN7Alembic7AbcGeom3v1112OXformSchema16getArbGeomParamsEv
libAlembic.so.1.7:_ZN7Alembic7AbcGeom3v1112OXformSchema16setChannelValuesERKSt6vectorIdSaIdEE
libAlembic.so.1.7:_ZN7Alembic7AbcGeom3v1112OXformSchema17getUserPropertiesEv
libAlembic.so.1.7:_ZN7Alembic7AbcGeom3v1112OXformSchema22getChildBoundsPropertyEv
libAlembic.so.1.7:_ZN7Alembic7AbcGeom3v1112OXformSchema3setERNS1_11XformSampleE
libAlembic.so.1.7:_ZN7Alembic7AbcGeom3v1112OXformSchema4initEl
libAlembic.so.1.7:_ZN7Alembic7AbcGeom3v1112OXformSchemaC1ENS_3Abc3v1117OCompoundPropertyERKNSt7__cxx1112basic_stringIcSt11char_traitsIcESaIcEEERKNS4_8ArgumentESG_SG_
libAlembic.so.1.7:_ZN7Alembic7AbcGeom3v1112OXformSchemaC1ESt10shared_ptrINS_15AbcCoreAbstract3v1122CompoundPropertyWriterEERKNSt7__cxx1112basic_stringIcSt11char_traitsIcESaIcEEERKNS_3Abc3v118ArgumentESK_SK_SK_
libAlembic.so.1.7:_ZN7Alembic7AbcGeom3v1112OXformSchemaC2ENS_3Abc3v1117OCompoundPropertyERKNSt7__cxx1112basic_stringIcSt11char_traitsIcESaIcEEERKNS4_8ArgumentESG_SG_
libAlembic.so.1.7:_ZN7Alembic7AbcGeom3v1112OXformSchemaC2ESt10shared_ptrINS_15AbcCoreAbstract3v1122CompoundPropertyWriterEERKNSt7__cxx1112basic_stringIcSt11char_traitsIcESaIcEEERKNS_3Abc3v118ArgumentESK_SK_SK_
libAlembic.so.1.7:_ZN7Alembic7AbcGeom3v1113GetVisibilityERNS_3Abc3v117IObjectERKNS3_15ISampleSelectorE
libAlembic.so.1.7:_ZN7Alembic7AbcGeom3v1113ICameraSchema4initERKNS_3Abc3v118ArgumentES7_
libAlembic.so.1.7:_ZN7Alembic7AbcGeom3v1113ICurvesSchema4initERKNS_3Abc3v118ArgumentES7_
libAlembic.so.1.7:_ZN7Alembic7AbcGeom3v1113IPointsSchema4initERKNS_3Abc3v118ArgumentES7_
libAlembic.so.1.7:_ZN7Alembic7AbcGeom3v1113OCameraSchema15setFromPreviousEv
libAlembic.so.1.7:_ZN7Alembic7AbcGeom3v1113OCameraSchema15setTimeSamplingESt10shared_ptrINS_15AbcCoreAbstract3v1112TimeSamplingEE
libAlembic.so.1.7:_ZN7Alembic7AbcGeom3v1113OCameraSchema15setTimeSamplingEj
libAlembic.so.1.7:_ZN7Alembic7AbcGeom3v1113OCameraSchema16getArbGeomParamsEv
libAlembic.so.1.7:_ZN7Alembic7AbcGeom3v1113OCameraSchema17getUserPropertiesEv
libAlembic.so.1.7:_ZN7Alembic7AbcGeom3v1113OCameraSchema22getChildBoundsPropertyEv
libAlembic.so.1.7:_ZN7Alembic7AbcGeom3v1113OCameraSchema3setERKNS1_12CameraSampleE
libAlembic.so.1.7:_ZN7Alembic7AbcGeom3v1113OCameraSchema4initEj
libAlembic.so.1.7:_ZN7Alembic7AbcGeom3v1113OCurvesSchema12selectiveSetERKNS2_6SampleE
libAlembic.so.1.7:_ZN7Alembic7AbcGeom3v1113OCurvesSchema15setFromPreviousEv
libAlembic.so.1.7:_ZN7Alembic7AbcGeom3v1113OCurvesSchema15setTimeSamplingESt10shared_ptrINS_15AbcCoreAbstract3v1112TimeSamplingEE
libAlembic.so.1.7:_ZN7Alembic7AbcGeom3v1113OCurvesSchema15setTimeSamplingEj
libAlembic.so.1.7:_ZN7Alembic7AbcGeom3v1113OCurvesSchema16calcBasisAndTypeERA4_hRKNS2_6SampleE
libAlembic.so.1.7:_ZN7Alembic7AbcGeom3v1113OCurvesSchema17createUVsPropertyERKNS2_6SampleE
libAlembic.so.1.7:_ZN7Alembic7AbcGeom3v1113OCurvesSchema19createKnotsPropertyEv
libAlembic.so.1.7:_ZN7Alembic7AbcGeom3v1113OCurvesSchema19createWidthPropertyERKNS2_6SampleE
libAlembic.so.1.7:_ZN7Alembic7AbcGeom3v1113OCurvesSchema20createOrdersPropertyEv
libAlembic.so.1.7:_ZN7Alembic7AbcGeom3v1113OCurvesSchema21createNormalsPropertyERKNS2_6SampleE
libAlembic.so.1.7:_ZN7Alembic7AbcGeom3v1113OCurvesSchema22createPositionPropertyEv
libAlembic.so.1.7:_ZN7Alembic7AbcGeom3v1113OCurvesSchema22createVelocityPropertyEv
libAlembic.so.1.7:_ZN7Alembic7AbcGeom3v1113OCurvesSchema22createVertexPropertiesEv
libAlembic.so.1.7:_ZN7Alembic7AbcGeom3v1113OCurvesSchema29createPositionWeightsPropertyEv
libAlembic.so.1.7:_ZN7Alembic7AbcGeom3v1113OCurvesSchema3setERKNS2_6SampleE
libAlembic.so.1.7:_ZN7Alembic7AbcGeom3v1113OCurvesSchema4initElb
libAlembic.so.1.7:_ZN7Alembic7AbcGeom3v1113OPointsSchema12selectiveSetERKNS2_6SampleE
libAlembic.so.1.7:_ZN7Alembic7AbcGeom3v1113OPointsSchema15setFromPreviousEv
libAlembic.so.1.7:_ZN7Alembic7AbcGeom3v1113OPointsSchema15setTimeSamplingESt10shared_ptrINS_15AbcCoreAbstract3v1112TimeSamplingEE
libAlembic.so.1.7:_ZN7Alembic7AbcGeom3v1113OPointsSchema15setTimeSamplingEj
libAlembic.so.1.7:_ZN7Alembic7AbcGeom3v1113OPointsSchema16createIdPropertyEv
libAlembic.so.1.7:_ZN7Alembic7AbcGeom3v1113OPointsSchema20createWidthsPropertyERKNS2_6SampleE
libAlembic.so.1.7:_ZN7Alembic7AbcGeom3v1113OPointsSchema22createPositionPropertyEv
libAlembic.so.1.7:_ZN7Alembic7AbcGeom3v1113OPointsSchema22createVelocityPropertyEv
libAlembic.so.1.7:_ZN7Alembic7AbcGeom3v1113OPointsSchema3setERKNS2_6SampleE
libAlembic.so.1.7:_ZN7Alembic7AbcGeom3v1113OPointsSchema4initEjb
libAlembic.so.1.7:_ZN7Alembic7AbcGeom3v1113OPointsSchemaC1ENS_3Abc3v1117OCompoundPropertyERKNSt7__cxx1112basic_stringIcSt11char_traitsIcESaIcEEERKNS4_8ArgumentESG_SG_
libAlembic.so.1.7:_ZN7Alembic7AbcGeom3v1113OPointsSchemaC1ESt10shared_ptrINS_15AbcCoreAbstract3v1122CompoundPropertyWriterEERKNSt7__cxx1112basic_stringIcSt11char_traitsIcESaIcEEERKNS_3Abc3v118ArgumentESK_SK_SK_
libAlembic.so.1.7:_ZN7Alembic7AbcGeom3v1113OPointsSchemaC2ENS_3Abc3v1117OCompoundPropertyERKNSt7__cxx1112basic_stringIcSt11char_traitsIcESaIcEEERKNS4_8ArgumentESG_SG_
libAlembic.so.1.7:_ZN7Alembic7AbcGeom3v1113OPointsSchemaC2ESt10shared_ptrINS_15AbcCoreAbstract3v1122CompoundPropertyWriterEERKNSt7__cxx1112basic_stringIcSt11char_traitsIcESaIcEEERKNS_3Abc3v118ArgumentESK_SK_SK_
libAlembic.so.1.7:_ZN7Alembic7AbcGeom3v1114IFaceSetSchema4initERKNS_3Abc3v118ArgumentES7_
libAlembic.so.1.7:_ZN7Alembic7AbcGeom3v1114INuPatchSchema4initERKNS_3Abc3v118ArgumentES7_
libAlembic.so.1.7:_ZN7Alembic7AbcGeom3v1114OFaceSetSchema15setTimeSamplingESt10shared_ptrINS_15AbcCoreAbstract3v1112TimeSamplingEE
libAlembic.so.1.7:_ZN7Alembic7AbcGeom3v1114OFaceSetSchema15setTimeSamplingEj
libAlembic.so.1.7:_ZN7Alembic7AbcGeom3v1114OFaceSetSchema18setFaceExclusivityENS1_18FaceSetExclusivityE
libAlembic.so.1.7:_ZN7Alembic7AbcGeom3v1114OFaceSetSchema22_recordExclusivityHintEv
libAlembic.so.1.7:_ZN7Alembic7AbcGeom3v1114OFaceSetSchema3setERKNS2_6SampleE
libAlembic.so.1.7:_ZN7Alembic7AbcGeom3v1114OFaceSetSchema4initESt10shared_ptrINS_15AbcCoreAbstract3v1122CompoundPropertyWriterEERKNS_3Abc3v118ArgumentESC_SC_SC_
libAlembic.so.1.7:_ZN7Alembic7AbcGeom3v1114OFaceSetSchemaC1ENS_3Abc3v1117OCompoundPropertyERKNSt7__cxx1112basic_stringIcSt11char_traitsIcESaIcEEERKNS4_8ArgumentESG_SG_
libAlembic.so.1.7:_ZN7Alembic7AbcGeom3v1114OFaceSetSchemaC1ESt10shared_ptrINS_15AbcCoreAbstract3v1122CompoundPropertyWriterEERKNSt7__cxx1112basic_stringIcSt11char_traitsIcESaIcEEERKNS_3Abc3v118ArgumentESK_SK_SK_
libAlembic.so.1.7:_ZN7Alembic7AbcGeom3v1114OFaceSetSchemaC2ENS_3Abc3v1117OCompoundPropertyERKNSt7__cxx1112basic_stringIcSt11char_traitsIcESaIcEEERKNS4_8ArgumentESG_SG_
libAlembic.so.1.7:_ZN7Alembic7AbcGeom3v1114OFaceSetSchemaC2ESt10shared_ptrINS_15AbcCoreAbstract3v1122CompoundPropertyWriterEERKNSt7__cxx1112basic_stringIcSt11char_traitsIcESaIcEEERKNS_3Abc3v118ArgumentESK_SK_SK_
libAlembic.so.1.7:_ZN7Alembic7AbcGeom3v1114ONuPatchSchema12selectiveSetERKNS2_6SampleE
libAlembic.so.1.7:_ZN7Alembic7AbcGeom3v1114ONuPatchSchema15setFromPreviousEv
libAlembic.so.1.7:_ZN7Alembic7AbcGeom3v1114ONuPatchSchema15setTimeSamplingESt10shared_ptrINS_15AbcCoreAbstract3v1112TimeSamplingEE
libAlembic.so.1.7:_ZN7Alembic7AbcGeom3v1114ONuPatchSchema15setTimeSamplingEj
libAlembic.so.1.7:_ZN7Alembic7AbcGeom3v1114ONuPatchSchema17createUVsPropertyERKNS2_6SampleE
libAlembic.so.1.7:_ZN7Alembic7AbcGeom3v1114ONuPatchSchema20createKnotPropertiesEv
libAlembic.so.1.7:_ZN7Alembic7AbcGeom3v1114ONuPatchSchema20createTrimPropretiesEv
libAlembic.so.1.7:_ZN7Alembic7AbcGeom3v1114ONuPatchSchema21createNormalsPropertyERKNS2_6SampleE
libAlembic.so.1.7:_ZN7Alembic7AbcGeom3v1114ONuPatchSchema22createVelocityPropertyEv
libAlembic.so.1.7:_ZN7Alembic7AbcGeom3v1114ONuPatchSchema24createPositionPropertiesEv
libAlembic.so.1.7:_ZN7Alembic7AbcGeom3v1114ONuPatchSchema29createPositionWeightsPropertyEv
libAlembic.so.1.7:_ZN7Alembic7AbcGeom3v1114ONuPatchSchema3setERKNS2_6SampleE
libAlembic.so.1.7:_ZN7Alembic7AbcGeom3v1114ONuPatchSchema4initElb
libAlembic.so.1.7:_ZN7Alembic7AbcGeom3v1114ONuPatchSchemaC1ENS_3Abc3v1117OCompoundPropertyERKNSt7__cxx1112basic_stringIcSt11char_traitsIcESaIcEEERKNS4_8ArgumentESG_SG_
libAlembic.so.1.7:_ZN7Alembic7AbcGeom3v1114ONuPatchSchemaC1ESt10shared_ptrINS_15AbcCoreAbstract3v1122CompoundPropertyWriterEERKNSt7__cxx1112basic_stringIcSt11char_traitsIcESaIcEEERKNS_3Abc3v118ArgumentESK_SK_SK_
libAlembic.so.1.7:_ZN7Alembic7AbcGeom3v1114ONuPatchSchemaC2ENS_3Abc3v1117OCompoundPropertyERKNSt7__cxx1112basic_stringIcSt11char_traitsIcESaIcEEERKNS4_8ArgumentESG_SG_
libAlembic.so.1.7:_ZN7Alembic7AbcGeom3v1114ONuPatchSchemaC2ESt10shared_ptrINS_15AbcCoreAbstract3v1122CompoundPropertyWriterEERKNSt7__cxx1112basic_stringIcSt11char_traitsIcESaIcEEERKNS_3Abc3v118ArgumentESK_SK_SK_
libAlembic.so.1.7:_ZN7Alembic7AbcGeom3v1115FilmBackXformOp12setTranslateERKN9Imath_2_34Vec2IdEE
libAlembic.so.1.7:_ZN7Alembic7AbcGeom3v1115FilmBackXformOp15setChannelValueEmd
libAlembic.so.1.7:_ZN7Alembic7AbcGeom3v1115FilmBackXformOp8setScaleERKN9Imath_2_34Vec2IdEE
libAlembic.so.1.7:_ZN7Alembic7AbcGeom3v1115FilmBackXformOp9setMatrixERKN9Imath_2_38Matrix33IdEE
libAlembic.so.1.7:_ZN7Alembic7AbcGeom3v1115FilmBackXformOpC1ENS1_26FilmBackXformOperationTypeERKNSt7__cxx1112basic_stringIcSt11char_traitsIcESaIcEEE
libAlembic.so.1.7:_ZN7Alembic7AbcGeom3v1115FilmBackXformOpC1ERKNSt7__cxx1112basic_stringIcSt11char_traitsIcESaIcEEE
libAlembic.so.1.7:_ZN7Alembic7AbcGeom3v1115FilmBackXformOpC1Ev
libAlembic.so.1.7:_ZN7Alembic7AbcGeom3v1115FilmBackXformOpC2ENS1_26FilmBackXformOperationTypeERKNSt7__cxx1112basic_stringIcSt11char_traitsIcESaIcEEE
libAlembic.so.1.7:_ZN7Alembic7AbcGeom3v1115FilmBackXformOpC2ERKNSt7__cxx1112basic_stringIcSt11char_traitsIcESaIcEEE
libAlembic.so.1.7:_ZN7Alembic7AbcGeom3v1115FilmBackXformOpC2Ev
libAlembic.so.1.7:_ZN7Alembic7AbcGeom3v1115IPolyMeshSchema10getFaceSetERKNSt7__cxx1112basic_stringIcSt11char_traitsIcESaIcEEE
libAlembic.so.1.7:_ZN7Alembic7AbcGeom3v1115IPolyMeshSchema10hasFaceSetERKNSt7__cxx1112basic_stringIcSt11char_traitsIcESaIcEEE
libAlembic.so.1.7:_ZN7Alembic7AbcGeom3v1115IPolyMeshSchema15getFaceSetNamesERSt6vectorINSt7__cxx1112basic_stringIcSt11char_traitsIcESaIcEEESaIS9_EE
libAlembic.so.1.7:_ZN7Alembic7AbcGeom3v1115IPolyMeshSchema16loadFaceSetNamesEv
libAlembic.so.1.7:_ZN7Alembic7AbcGeom3v1115IPolyMeshSchema4initERKNS_3Abc3v118ArgumentES7_
libAlembic.so.1.7:_ZN7Alembic7AbcGeom3v1115IPolyMeshSchemaaSERKS2_
libAlembic.so.1.7:_ZN7Alembic7AbcGeom3v1115OPolyMeshSchema10getFaceSetERKNSt7__cxx1112basic_stringIcSt11char_traitsIcESaIcEEE
libAlembic.so.1.7:_ZN7Alembic7AbcGeom3v1115OPolyMeshSchema10hasFaceSetERKNSt7__cxx1112basic_stringIcSt11char_traitsIcESaIcEEE
libAlembic.so.1.7:_ZN7Alembic7AbcGeom3v1115OPolyMeshSchema12selectiveSetERKNS2_6SampleE
libAlembic.so.1.7:_ZN7Alembic7AbcGeom3v1115OPolyMeshSchema13createFaceSetERKNSt7__cxx1112basic_stringIcSt11char_traitsIcESaIcEEE
libAlembic.so.1.7:_ZN7Alembic7AbcGeom3v1115OPolyMeshSchema15getFaceSetNamesERSt6vectorINSt7__cxx1112basic_stringIcSt11char_traitsIcESaIcEEESaIS9_EE
libAlembic.so.1.7:_ZN7Alembic7AbcGeom3v1115OPolyMeshSchema15setFromPreviousEv
libAlembic.so.1.7:_ZN7Alembic7AbcGeom3v1115OPolyMeshSchema15setTimeSamplingESt10shared_ptrINS_15AbcCoreAbstract3v1112TimeSamplingEE
libAlembic.so.1.7:_ZN7Alembic7AbcGeom3v1115OPolyMeshSchema15setTimeSamplingEj
libAlembic.so.1.7:_ZN7Alembic7AbcGeom3v1115OPolyMeshSchema15setUVSourceNameERKNSt7__cxx1112basic_stringIcSt11char_traitsIcESaIcEEE
libAlembic.so.1.7:_ZN7Alembic7AbcGeom3v1115OPolyMeshSchema17createUVsPropertyERKNS2_6SampleE
libAlembic.so.1.7:_ZN7Alembic7AbcGeom3v1115OPolyMeshSchema21createNormalsPropertyERKNS2_6SampleE
libAlembic.so.1.7:_ZN7Alembic7AbcGeom3v1115OPolyMeshSchema23createPositionsPropertyEv
libAlembic.so.1.7:_ZN7Alembic7AbcGeom3v1115OPolyMeshSchema24createVelocitiesPropertyEv
libAlembic.so.1.7:_ZN7Alembic7AbcGeom3v1115OPolyMeshSchema3setERKNS2_6SampleE
libAlembic.so.1.7:_ZN7Alembic7AbcGeom3v1115OPolyMeshSchema4initEjb
libAlembic.so.1.7:_ZN7Alembic7AbcGeom3v1115OPolyMeshSchemaC1ENS_3Abc3v1117OCompoundPropertyERKNSt7__cxx1112basic_stringIcSt11char_traitsIcESaIcEEERKNS4_8ArgumentESG_SG_
libAlembic.so.1.7:_ZN7Alembic7AbcGeom3v1115OPolyMeshSchemaC1ESt10shared_ptrINS_15AbcCoreAbstract3v1122CompoundPropertyWriterEERKNSt7__cxx1112basic_stringIcSt11char_traitsIcESaIcEEERKNS_3Abc3v118ArgumentESK_SK_SK_
libAlembic.so.1.7:_ZN7Alembic7AbcGeom3v1115OPolyMeshSchemaC2ENS_3Abc3v1117OCompoundPropertyERKNSt7__cxx1112basic_stringIcSt11char_traitsIcESaIcEEERKNS4_8ArgumentESG_SG_
libAlembic.so.1.7:_ZN7Alembic7AbcGeom3v1115OPolyMeshSchemaC2ESt10shared_ptrINS_15AbcCoreAbstract3v1122CompoundPropertyWriterEERKNSt7__cxx1112basic_stringIcSt11char_traitsIcESaIcEEERKNS_3Abc3v118ArgumentESK_SK_SK_
libAlembic.so.1.7:_ZN7Alembic7AbcGeom3v1117GetIArchiveBoundsERNS_3Abc3v118IArchiveERKNS3_8ArgumentES8_
libAlembic.so.1.7:_ZN7Alembic7AbcGeom3v1119IsAncestorInvisibleENS_3Abc3v117IObjectERKNS3_15ISampleSelectorE
libAlembic.so.1.7:_ZN7Alembic7AbcGeom3v1120CreateOArchiveBoundsERNS_3Abc3v118OArchiveERKNS3_8ArgumentES8_S8_
libAlembic.so.1.7:_ZN7Alembic7AbcGeom3v1120GetStepFromBasisTypeENS1_9BasisTypeE
libAlembic.so.1.7:_ZN7Alembic7AbcGeom3v1121GetVisibilityPropertyERNS_3Abc3v117IObjectE
libAlembic.so.1.7:_ZN7Alembic7AbcGeom3v1124CreateVisibilityPropertyERNS_3Abc3v117OObjectESt10shared_ptrINS_15AbcCoreAbstract3v1112TimeSamplingEE
libAlembic.so.1.7:_ZN7Alembic7AbcGeom3v1124CreateVisibilityPropertyERNS_3Abc3v117OObjectEj
libAlembic.so.1.7:_ZN7Alembic7AbcGeom3v1125GetBasisNameFromBasisTypeB5cxx11ENS1_9BasisTypeE
libAlembic.so.1.7:_ZN7Alembic7AbcGeom3v1128GeometryScopeNumValuesPointsENS1_13GeometryScopeEm
libAlembic.so.1.7:_ZN7Alembic7AbcGeom3v1129GeometryScopeNumValuesNuPatchENS1_13GeometryScopeEmmmm
libAlembic.so.1.7:_ZN7Alembic7AbcGeom3v1129GeometryScopeNumValuesPolygonENS1_13GeometryScopeEm
libAlembic.so.1.7:_ZN7Alembic7AbcGeom3v1130GeometryScopeNumValuesQuadricsENS1_13GeometryScopeE
libAlembic.so.1.7:_ZN7Alembic7AbcGeom3v1133GeometryScopeNumValuesCubicCurvesENS1_13GeometryScopeEmbm
libAlembic.so.1.7:_ZN7Alembic7AbcGeom3v1134GeometryScopeNumValuesBicubicPatchENS1_13GeometryScopeE
libAlembic.so.1.7:_ZN7Alembic7AbcGeom3v1134GeometryScopeNumValuesLinearCurvesENS1_13GeometryScopeEmbm
libAlembic.so.1.7:_ZN7Alembic7AbcGeom3v1135GeometryScopeNumValuesBilinearPatchENS1_13GeometryScopeE
libAlembic.so.1.7:_ZN7Alembic7AbcGeom3v1136GeometryScopeNumValuesPointsPolygonsENS1_13GeometryScopeEmmm
libAlembic.so.1.7:_ZN7Alembic7AbcGeom3v1137GeometryScopeNumValuesSubdivisionMeshENS1_13GeometryScopeEmmm
libAlembic.so.1.7:_ZN7Alembic7AbcGeom3v1138GeometryScopeNumValuesBicubicPatchMeshENS1_13GeometryScopeEmbmb
libAlembic.so.1.7:_ZN7Alembic7AbcGeom3v1139GeometryScopeNumValuesBilinearPatchMeshENS1_13GeometryScopeEmbmb
libAlembic.so.1.7:_ZN7Alembic7AbcGeom3v114isUVERKNS_15AbcCoreAbstract3v1114PropertyHeaderE
libAlembic.so.1.7:_ZN7Alembic7AbcGeom3v117SetIsUVERNS_15AbcCoreAbstract3v118MetaDataEb
libAlembic.so.1.7:_ZN7Alembic7AbcGeom3v117XformOp12setTranslateERKN9Imath_2_34Vec3IdEE
libAlembic.so.1.7:_ZN7Alembic7AbcGeom3v117XformOp15setChannelValueEmd
libAlembic.so.1.7:_ZN7Alembic7AbcGeom3v117XformOp7setAxisERKN9Imath_2_34Vec3IdEE
libAlembic.so.1.7:_ZN7Alembic7AbcGeom3v117XformOp7setHintEh
libAlembic.so.1.7:_ZN7Alembic7AbcGeom3v117XformOp7setTypeENS1_18XformOperationTypeE
libAlembic.so.1.7:_ZN7Alembic7AbcGeom3v117XformOp8setAngleEd
libAlembic.so.1.7:_ZN7Alembic7AbcGeom3v117XformOp8setScaleERKN9Imath_2_34Vec3IdEE
libAlembic.so.1.7:_ZN7Alembic7AbcGeom3v117XformOp9setMatrixERKN9Imath_2_38Matrix44IdEE
libAlembic.so.1.7:_ZN7Alembic7AbcGeom3v117XformOp9setVectorERKN9Imath_2_34Vec3IdEE
libAlembic.so.1.7:_ZN7Alembic7AbcGeom3v117XformOpC1ENS1_18XformOperationTypeEh
libAlembic.so.1.7:_ZN7Alembic7AbcGeom3v117XformOpC1Eh
libAlembic.so.1.7:_ZN7Alembic7AbcGeom3v117XformOpC1Ev
libAlembic.so.1.7:_ZN7Alembic7AbcGeom3v117XformOpC2ENS1_18XformOperationTypeEh
libAlembic.so.1.7:_ZN7Alembic7AbcGeom3v117XformOpC2Eh
libAlembic.so.1.7:_ZN7Alembic7AbcGeom3v117XformOpC2Ev
libAlembic.so.1.7:_ZNK7Alembic11AbcCoreHDF53v1111ReadArchiveclERKNSt7__cxx1112basic_stringIcSt11char_traitsIcESaIcEEE
libAlembic.so.1.7:_ZNK7Alembic11AbcCoreHDF53v1111ReadArchiveclERKNSt7__cxx1112basic_stringIcSt11char_traitsIcESaIcEEESt10shared_ptrINS_15AbcCoreAbstract3v1120ReadArraySampleCacheEE
libAlembic.so.1.7:_ZNK7Alembic11AbcCoreHDF53v1112WriteArchiveclERKNSt7__cxx1112basic_stringIcSt11char_traitsIcESaIcEEERKNS_15AbcCoreAbstract3v118MetaDataE
libAlembic.so.1.7:_ZNK7Alembic12AbcCoreLayer3v1111ReadArchiveclERSt6vectorISt10shared_ptrINS_15AbcCoreAbstract3v1113ArchiveReaderEESaIS8_EE
libAlembic.so.1.7:_ZNK7Alembic12AbcCoreOgawa3v1111ReadArchiveclERKNSt7__cxx1112basic_stringIcSt11char_traitsIcESaIcEEE
libAlembic.so.1.7:_ZNK7Alembic12AbcCoreOgawa3v1111ReadArchiveclERKNSt7__cxx1112basic_stringIcSt11char_traitsIcESaIcEEESt10shared_ptrINS_15AbcCoreAbstract3v1120ReadArraySampleCacheEE
libAlembic.so.1.7:_ZNK7Alembic12AbcCoreOgawa3v1112WriteArchiveclEPSoRKNS_15AbcCoreAbstract3v118MetaDataE
libAlembic.so.1.7:_ZNK7Alembic12AbcCoreOgawa3v1112WriteArchiveclERKNSt7__cxx1112basic_stringIcSt11char_traitsIcESaIcEEERKNS_15AbcCoreAbstract3v118MetaDataE
libAlembic.so.1.7:_ZNK7Alembic15AbcCoreAbstract3v1111ArraySample6getKeyEv
libAlembic.so.1.7:_ZNK7Alembic15AbcCoreAbstract3v1112TimeSampling12getCeilIndexEdl
libAlembic.so.1.7:_ZNK7Alembic15AbcCoreAbstract3v1112TimeSampling12getNearIndexEdl
libAlembic.so.1.7:_ZNK7Alembic15AbcCoreAbstract3v1112TimeSampling13getFloorIndexEdl
libAlembic.so.1.7:_ZNK7Alembic15AbcCoreAbstract3v1112TimeSampling13getSampleTimeEl
libAlembic.so.1.7:_ZNK7Alembic15AbcCoreAbstract3v1116TimeSamplingTypeeqERKS2_
libAlembic.so.1.7:_ZNK7Alembic3Abc3v1114IArrayProperty10isConstantEv
libAlembic.so.1.7:_ZNK7Alembic3Abc3v1114IArrayProperty12isScalarLikeEv
libAlembic.so.1.7:_ZNK7Alembic3Abc3v1114IArrayProperty13getDimensionsERNS_4Util3v1114BaseDimensionsImEERKNS1_15ISampleSelectorE
libAlembic.so.1.7:_ZNK7Alembic3Abc3v1114IArrayProperty13getNumSamplesEv
libAlembic.so.1.7:_ZNK7Alembic3Abc3v1114IArrayProperty15getTimeSamplingEv
libAlembic.so.1.7:_ZNK7Alembic3Abc3v1114IArrayProperty3getERSt10shared_ptrINS_15AbcCoreAbstract3v1111ArraySampleEERKNS1_15ISampleSelectorE
libAlembic.so.1.7:_ZNK7Alembic3Abc3v1114IArrayProperty6getKeyERNS_15AbcCoreAbstract3v1114ArraySampleKeyERKNS1_15ISampleSelectorE
libAlembic.so.1.7:_ZNK7Alembic3Abc3v1114IArrayProperty9getParentEv
libAlembic.so.1.7:_ZNK7Alembic3Abc3v1114OArrayProperty13getNumSamplesEv
libAlembic.so.1.7:_ZNK7Alembic3Abc3v1114OArrayProperty9getParentEv
libAlembic.so.1.7:_ZNK7Alembic3Abc3v1115ISampleSelector8getIndexERKSt10shared_ptrINS_15AbcCoreAbstract3v1112TimeSamplingEEl
libAlembic.so.1.7:_ZNK7Alembic3Abc3v1115IScalarProperty10isConstantEv
libAlembic.so.1.7:_ZNK7Alembic3Abc3v1115IScalarProperty13getNumSamplesEv
libAlembic.so.1.7:_ZNK7Alembic3Abc3v1115IScalarProperty15getTimeSamplingEv
libAlembic.so.1.7:_ZNK7Alembic3Abc3v1115IScalarProperty3getEPvRKNS1_15ISampleSelectorE
libAlembic.so.1.7:_ZNK7Alembic3Abc3v1115IScalarProperty9getParentEv
libAlembic.so.1.7:_ZNK7Alembic3Abc3v1115OScalarProperty13getNumSamplesEv
libAlembic.so.1.7:_ZNK7Alembic3Abc3v1115OScalarProperty9getParentEv
libAlembic.so.1.7:_ZNK7Alembic3Abc3v1117ICompoundProperty16getNumPropertiesEv
libAlembic.so.1.7:_ZNK7Alembic3Abc3v1117ICompoundProperty17getPropertyHeaderERKNSt7__cxx1112basic_stringIcSt11char_traitsIcESaIcEEE
libAlembic.so.1.7:_ZNK7Alembic3Abc3v1117ICompoundProperty17getPropertyHeaderEm
libAlembic.so.1.7:_ZNK7Alembic3Abc3v1117ICompoundProperty9getParentEv
libAlembic.so.1.7:_ZNK7Alembic3Abc3v1117OCompoundProperty11getPropertyERKNSt7__cxx1112basic_stringIcSt11char_traitsIcESaIcEEE
libAlembic.so.1.7:_ZNK7Alembic3Abc3v1117OCompoundProperty11getPropertyEm
libAlembic.so.1.7:_ZNK7Alembic3Abc3v1117OCompoundProperty16getNumPropertiesEv
libAlembic.so.1.7:_ZNK7Alembic3Abc3v1117OCompoundProperty17getPropertyHeaderERKNSt7__cxx1112basic_stringIcSt11char_traitsIcESaIcEEE
libAlembic.so.1.7:_ZNK7Alembic3Abc3v1117OCompoundProperty17getPropertyHeaderEm
libAlembic.so.1.7:_ZNK7Alembic3Abc3v1117OCompoundProperty9getParentEv
libAlembic.so.1.7:_ZNK7Alembic3Abc3v117IObject10getArchiveEv
libAlembic.so.1.7:_ZNK7Alembic3Abc3v117IObject11getFullNameB5cxx11Ev
libAlembic.so.1.7:_ZNK7Alembic3Abc3v117IObject13getPropertiesEv
libAlembic.so.1.7:_ZNK7Alembic3Abc3v117IObject14getChildHeaderERKNSt7__cxx1112basic_stringIcSt11char_traitsIcESaIcEEE
libAlembic.so.1.7:_ZNK7Alembic3Abc3v117IObject14getChildHeaderEm
libAlembic.so.1.7:_ZNK7Alembic3Abc3v117IObject14getNumChildrenEv
libAlembic.so.1.7:_ZNK7Alembic3Abc3v117IObject14isInstanceRootEv
libAlembic.so.1.7:_ZNK7Alembic3Abc3v117IObject15isChildInstanceERKNSt7__cxx1112basic_stringIcSt11char_traitsIcESaIcEEE
libAlembic.so.1.7:_ZNK7Alembic3Abc3v117IObject15isChildInstanceEm
libAlembic.so.1.7:_ZNK7Alembic3Abc3v117IObject18instanceSourcePathB5cxx11Ev
libAlembic.so.1.7:_ZNK7Alembic3Abc3v117IObject20isInstanceDescendantEv
libAlembic.so.1.7:_ZNK7Alembic3Abc3v117IObject20setInstancedFullNameERKNSt7__cxx1112basic_stringIcSt11char_traitsIcESaIcEEE
libAlembic.so.1.7:_ZNK7Alembic3Abc3v117IObject7getNameB5cxx11Ev
libAlembic.so.1.7:_ZNK7Alembic3Abc3v117IObject8getChildERKNSt7__cxx1112basic_stringIcSt11char_traitsIcESaIcEEE
libAlembic.so.1.7:_ZNK7Alembic3Abc3v117IObject8getChildEm
libAlembic.so.1.7:_ZNK7Alembic3Abc3v117IObject9getHeaderEv
libAlembic.so.1.7:_ZNK7Alembic3Abc3v117IObject9getParentEv
libAlembic.so.1.7:_ZNK7Alembic3Abc3v117OObject9getHeaderEv
libAlembic.so.1.7:_ZNK7Alembic3Abc3v118IArchive6getTopEv
libAlembic.so.1.7:_ZNK7Alembic3Abc3v118IArchive7getNameB5cxx11Ev
libAlembic.so.1.7:_ZNK7Alembic3Abc3v118OArchive18getCompressionHintEv
libAlembic.so.1.7:_ZNK7Alembic3Abc3v118OArchive7getNameB5cxx11Ev
libAlembic.so.1.7:_ZNK7Alembic4Util3v118TokenMap3getB5cxx11Eccb
libAlembic.so.1.7:_ZNK7Alembic5Ogawa3v115IData6getPosEv
libAlembic.so.1.7:_ZNK7Alembic5Ogawa3v115IData7getSizeEv
libAlembic.so.1.7:_ZNK7Alembic5Ogawa3v115OData6getPosEv
libAlembic.so.1.7:_ZNK7Alembic5Ogawa3v115OData7getSizeEv
libAlembic.so.1.7:_ZNK7Alembic5Ogawa3v116IGroup11isChildDataEm
libAlembic.so.1.7:_ZNK7Alembic5Ogawa3v116IGroup12isChildGroupEm
libAlembic.so.1.7:_ZNK7Alembic5Ogawa3v116IGroup14getNumChildrenEv
libAlembic.so.1.7:_ZNK7Alembic5Ogawa3v116IGroup16isEmptyChildDataEm
libAlembic.so.1.7:_ZNK7Alembic5Ogawa3v116IGroup17isEmptyChildGroupEm
libAlembic.so.1.7:_ZNK7Alembic5Ogawa3v116IGroup7isLightEv
libAlembic.so.1.7:_ZNK7Alembic5Ogawa3v116OGroup11isChildDataEm
libAlembic.so.1.7:_ZNK7Alembic5Ogawa3v116OGroup12isChildGroupEm
libAlembic.so.1.7:_ZNK7Alembic5Ogawa3v116OGroup14getNumChildrenEv
libAlembic.so.1.7:_ZNK7Alembic5Ogawa3v116OGroup16isChildEmptyDataEm
libAlembic.so.1.7:_ZNK7Alembic5Ogawa3v116OGroup17isChildEmptyGroupEm
libAlembic.so.1.7:_ZNK7Alembic5Ogawa3v118IArchive10getVersionEv
libAlembic.so.1.7:_ZNK7Alembic5Ogawa3v118IArchive7isValidEv
libAlembic.so.1.7:_ZNK7Alembic5Ogawa3v118IArchive8getGroupEv
libAlembic.so.1.7:_ZNK7Alembic5Ogawa3v118IArchive8isFrozenEv
libAlembic.so.1.7:_ZNK7Alembic7AbcGeom3v1111ISubDSchema13getNumSamplesEv
libAlembic.so.1.7:_ZNK7Alembic7AbcGeom3v1111ISubDSchema19getTopologyVarianceEv
libAlembic.so.1.7:_ZNK7Alembic7AbcGeom3v1111ISubDSchema3getERNS2_6SampleERKNS_3Abc3v1115ISampleSelectorE
libAlembic.so.1.7:_ZNK7Alembic7AbcGeom3v1111XformSample12getXRotationEv
libAlembic.so.1.7:_ZNK7Alembic7AbcGeom3v1111XformSample12getYRotationEv
libAlembic.so.1.7:_ZNK7Alembic7AbcGeom3v1111XformSample12getZRotationEv
libAlembic.so.1.7:_ZNK7Alembic7AbcGeom3v1111XformSample14getTranslationEv
libAlembic.so.1.7:_ZNK7Alembic7AbcGeom3v1111XformSample16getNumOpChannelsEv
libAlembic.so.1.7:_ZNK7Alembic7AbcGeom3v1111XformSample17getInheritsXformsEv
libAlembic.so.1.7:_ZNK7Alembic7AbcGeom3v1111XformSample5getOpEm
libAlembic.so.1.7:_ZNK7Alembic7AbcGeom3v1111XformSample7getAxisEv
libAlembic.so.1.7:_ZNK7Alembic7AbcGeom3v1111XformSample8getAngleEv
libAlembic.so.1.7:_ZNK7Alembic7AbcGeom3v1111XformSample8getScaleEv
libAlembic.so.1.7:_ZNK7Alembic7AbcGeom3v1111XformSample9getMatrixEv
libAlembic.so.1.7:_ZNK7Alembic7AbcGeom3v1111XformSample9getNumOpsEv
libAlembic.so.1.7:_ZNK7Alembic7AbcGeom3v1111XformSampleixERKm
libAlembic.so.1.7:_ZNK7Alembic7AbcGeom3v1112CameraSample12getCoreValueEm
libAlembic.so.1.7:_ZNK7Alembic7AbcGeom3v1112CameraSample14getFieldOfViewEv
libAlembic.so.1.7:_ZNK7Alembic7AbcGeom3v1112CameraSample16getNumOpChannelsEv
libAlembic.so.1.7:_ZNK7Alembic7AbcGeom3v1112CameraSample17getFilmBackMatrixEv
libAlembic.so.1.7:_ZNK7Alembic7AbcGeom3v1112CameraSample5getOpEm
libAlembic.so.1.7:_ZNK7Alembic7AbcGeom3v1112CameraSample9getNumOpsEv
libAlembic.so.1.7:_ZNK7Alembic7AbcGeom3v1112CameraSampleixERKm
libAlembic.so.1.7:_ZNK7Alembic7AbcGeom3v1112ILightSchema10isConstantEv
libAlembic.so.1.7:_ZNK7Alembic7AbcGeom3v1112ILightSchema13getNumSamplesEv
libAlembic.so.1.7:_ZNK7Alembic7AbcGeom3v1112ILightSchema15getTimeSamplingEv
libAlembic.so.1.7:_ZNK7Alembic7AbcGeom3v1112IXformSchema13getNumSamplesEv
libAlembic.so.1.7:_ZNK7Alembic7AbcGeom3v1112IXformSchema15getTimeSamplingEv
libAlembic.so.1.7:_ZNK7Alembic7AbcGeom3v1112IXformSchema16getChannelValuesElRNS1_11XformSampleE
libAlembic.so.1.7:_ZNK7Alembic7AbcGeom3v1112IXformSchema17getInheritsXformsERKNS_3Abc3v1115ISampleSelectorE
libAlembic.so.1.7:_ZNK7Alembic7AbcGeom3v1112IXformSchema3getERNS1_11XformSampleERKNS_3Abc3v1115ISampleSelectorE
libAlembic.so.1.7:_ZNK7Alembic7AbcGeom3v1112IXformSchema8getValueERKNS_3Abc3v1115ISampleSelectorE
libAlembic.so.1.7:_ZNK7Alembic7AbcGeom3v1112OXformSchema13getNumSamplesEv
libAlembic.so.1.7:_ZNK7Alembic7AbcGeom3v1112OXformSchema15getTimeSamplingEv
libAlembic.so.1.7:_ZNK7Alembic7AbcGeom3v1113ICameraSchema10isConstantEv
libAlembic.so.1.7:_ZNK7Alembic7AbcGeom3v1113ICameraSchema3getERNS1_12CameraSampleERKNS_3Abc3v1115ISampleSelectorE
libAlembic.so.1.7:_ZNK7Alembic7AbcGeom3v1113ICurvesSchema19getTopologyVarianceEv
libAlembic.so.1.7:_ZNK7Alembic7AbcGeom3v1113ICurvesSchema3getERNS2_6SampleERKNS_3Abc3v1115ISampleSelectorE
libAlembic.so.1.7:_ZNK7Alembic7AbcGeom3v1114IFaceSetSchema13getNumSamplesEv
libAlembic.so.1.7:_ZNK7Alembic7AbcGeom3v1114IFaceSetSchema18getFaceExclusivityEv
libAlembic.so.1.7:_ZNK7Alembic7AbcGeom3v1114IFaceSetSchema3getERNS2_6SampleERKNS_3Abc3v1115ISampleSelectorE
libAlembic.so.1.7:_ZNK7Alembic7AbcGeom3v1114INuPatchSchema12hasTrimPropsEv
libAlembic.so.1.7:_ZNK7Alembic7AbcGeom3v1114INuPatchSchema19getTopologyVarianceEv
libAlembic.so.1.7:_ZNK7Alembic7AbcGeom3v1114INuPatchSchema27trimCurveTopologyIsConstantEv
libAlembic.so.1.7:_ZNK7Alembic7AbcGeom3v1114INuPatchSchema29trimCurveTopologyIsHomogenousEv
libAlembic.so.1.7:_ZNK7Alembic7AbcGeom3v1114INuPatchSchema3getERNS2_6SampleERKNS_3Abc3v1115ISampleSelectorE
libAlembic.so.1.7:_ZNK7Alembic7AbcGeom3v1115FilmBackXformOp10isMatrixOpEv
libAlembic.so.1.7:_ZNK7Alembic7AbcGeom3v1115FilmBackXformOp12getTranslateEv
libAlembic.so.1.7:_ZNK7Alembic7AbcGeom3v1115FilmBackXformOp13isTranslateOpEv
libAlembic.so.1.7:_ZNK7Alembic7AbcGeom3v1115FilmBackXformOp14getNumChannelsEv
libAlembic.so.1.7:_ZNK7Alembic7AbcGeom3v1115FilmBackXformOp14getTypeAndHintB5cxx11Ev
libAlembic.so.1.7:_ZNK7Alembic7AbcGeom3v1115FilmBackXformOp15getChannelValueEm
libAlembic.so.1.7:_ZNK7Alembic7AbcGeom3v1115FilmBackXformOp7getHintB5cxx11Ev
libAlembic.so.1.7:_ZNK7Alembic7AbcGeom3v1115FilmBackXformOp7getTypeEv
libAlembic.so.1.7:_ZNK7Alembic7AbcGeom3v1115FilmBackXformOp8getScaleEv
libAlembic.so.1.7:_ZNK7Alembic7AbcGeom3v1115FilmBackXformOp9getMatrixEv
libAlembic.so.1.7:_ZNK7Alembic7AbcGeom3v1115FilmBackXformOp9isScaleOpEv
libAlembic.so.1.7:_ZNK7Alembic7AbcGeom3v1115IPolyMeshSchema19getTopologyVarianceEv
libAlembic.so.1.7:_ZNK7Alembic7AbcGeom3v117XformOp10isMatrixOpEv
libAlembic.so.1.7:_ZNK7Alembic7AbcGeom3v117XformOp10isRotateOpEv
libAlembic.so.1.7:_ZNK7Alembic7AbcGeom3v117XformOp11isRotateXOpEv
libAlembic.so.1.7:_ZNK7Alembic7AbcGeom3v117XformOp11isRotateYOpEv
libAlembic.so.1.7:_ZNK7Alembic7AbcGeom3v117XformOp11isRotateZOpEv
libAlembic.so.1.7:_ZNK7Alembic7AbcGeom3v117XformOp11isXAnimatedEv
libAlembic.so.1.7:_ZNK7Alembic7AbcGeom3v117XformOp11isYAnimatedEv
libAlembic.so.1.7:_ZNK7Alembic7AbcGeom3v117XformOp11isZAnimatedEv
libAlembic.so.1.7:_ZNK7Alembic7AbcGeom3v117XformOp12getTranslateEv
libAlembic.so.1.7:_ZNK7Alembic7AbcGeom3v117XformOp12getXRotationEv
libAlembic.so.1.7:_ZNK7Alembic7AbcGeom3v117XformOp12getYRotationEv
libAlembic.so.1.7:_ZNK7Alembic7AbcGeom3v117XformOp12getZRotationEv
libAlembic.so.1.7:_ZNK7Alembic7AbcGeom3v117XformOp13getOpEncodingEv
libAlembic.so.1.7:_ZNK7Alembic7AbcGeom3v117XformOp13isTranslateOpEv
libAlembic.so.1.7:_ZNK7Alembic7AbcGeom3v117XformOp14getNumChannelsEv
libAlembic.so.1.7:_ZNK7Alembic7AbcGeom3v117XformOp15getChannelValueEm
libAlembic.so.1.7:_ZNK7Alembic7AbcGeom3v117XformOp15isAngleAnimatedEv
libAlembic.so.1.7:_ZNK7Alembic7AbcGeom3v117XformOp17isChannelAnimatedEm
libAlembic.so.1.7:_ZNK7Alembic7AbcGeom3v117XformOp22getDefaultChannelValueEm
libAlembic.so.1.7:_ZNK7Alembic7AbcGeom3v117XformOp7getAxisEv
libAlembic.so.1.7:_ZNK7Alembic7AbcGeom3v117XformOp7getHintEv
libAlembic.so.1.7:_ZNK7Alembic7AbcGeom3v117XformOp7getTypeEv
libAlembic.so.1.7:_ZNK7Alembic7AbcGeom3v117XformOp8getAngleEv
libAlembic.so.1.7:_ZNK7Alembic7AbcGeom3v117XformOp8getScaleEv
libAlembic.so.1.7:_ZNK7Alembic7AbcGeom3v117XformOp9getMatrixEv
libAlembic.so.1.7:_ZNK7Alembic7AbcGeom3v117XformOp9getVectorEv
libAlembic.so.1.7:_ZNK7Alembic7AbcGeom3v117XformOp9isScaleOpEv
